
o-melhor-programa-do-mundo.elf:     file format elf32-littlearm

Sections:
Idx Name          Size      VMA       LMA       File off  Algn
  0 .isr_vector   000001d8  08000000  08000000  00001000  2**0
                  CONTENTS, ALLOC, LOAD, READONLY, DATA
  1 .text         000037a4  080001d8  080001d8  000011d8  2**2
                  CONTENTS, ALLOC, LOAD, READONLY, CODE
  2 .rodata       00000010  0800397c  0800397c  0000497c  2**2
                  CONTENTS, ALLOC, LOAD, READONLY, DATA
  3 .ARM.extab    00000000  0800398c  0800398c  0000500c  2**0
                  CONTENTS, READONLY
  4 .ARM          00000000  0800398c  0800398c  0000500c  2**0
                  CONTENTS, READONLY
  5 .preinit_array 00000000  0800398c  0800398c  0000500c  2**0
                  CONTENTS, ALLOC, LOAD, DATA
  6 .init_array   00000004  0800398c  0800398c  0000498c  2**2
                  CONTENTS, ALLOC, LOAD, READONLY, DATA
  7 .fini_array   00000004  08003990  08003990  00004990  2**2
                  CONTENTS, ALLOC, LOAD, READONLY, DATA
  8 .data         0000000c  20000000  08003994  00005000  2**2
                  CONTENTS, ALLOC, LOAD, DATA
  9 .bss          000005ac  2000000c  080039a0  0000500c  2**2
                  ALLOC
 10 ._user_heap_stack 00000600  200005b8  080039a0  000055b8  2**0
                  ALLOC
 11 .ARM.attributes 00000030  00000000  00000000  0000500c  2**0
                  CONTENTS, READONLY
 12 .debug_info   00013ad7  00000000  00000000  0000503c  2**0
                  CONTENTS, READONLY, DEBUGGING, OCTETS
 13 .debug_abbrev 00002417  00000000  00000000  00018b13  2**0
                  CONTENTS, READONLY, DEBUGGING, OCTETS
 14 .debug_aranges 00001138  00000000  00000000  0001af30  2**3
                  CONTENTS, READONLY, DEBUGGING, OCTETS
 15 .debug_rnglists 00000d92  00000000  00000000  0001c068  2**0
                  CONTENTS, READONLY, DEBUGGING, OCTETS
 16 .debug_macro  000023bb  00000000  00000000  0001cdfa  2**0
                  CONTENTS, READONLY, DEBUGGING, OCTETS
 17 .debug_line   00013bb9  00000000  00000000  0001f1b5  2**0
                  CONTENTS, READONLY, DEBUGGING, OCTETS
 18 .debug_str    000e4a4f  00000000  00000000  00032d6e  2**0
                  CONTENTS, READONLY, DEBUGGING, OCTETS
 19 .comment      00000043  00000000  00000000  001177bd  2**0
                  CONTENTS, READONLY
 20 .debug_frame  000045a4  00000000  00000000  00117800  2**2
                  CONTENTS, READONLY, DEBUGGING, OCTETS
 21 .debug_line_str 0000008b  00000000  00000000  0011bda4  2**0
                  CONTENTS, READONLY, DEBUGGING, OCTETS

Disassembly of section .text:

080001d8 <__do_global_dtors_aux>:
 80001d8:	b510      	push	{r4, lr}
 80001da:	4c05      	ldr	r4, [pc, #20]	@ (80001f0 <__do_global_dtors_aux+0x18>)
 80001dc:	7823      	ldrb	r3, [r4, #0]
 80001de:	b933      	cbnz	r3, 80001ee <__do_global_dtors_aux+0x16>
 80001e0:	4b04      	ldr	r3, [pc, #16]	@ (80001f4 <__do_global_dtors_aux+0x1c>)
 80001e2:	b113      	cbz	r3, 80001ea <__do_global_dtors_aux+0x12>
 80001e4:	4804      	ldr	r0, [pc, #16]	@ (80001f8 <__do_global_dtors_aux+0x20>)
 80001e6:	f3af 8000 	nop.w
 80001ea:	2301      	movs	r3, #1
 80001ec:	7023      	strb	r3, [r4, #0]
 80001ee:	bd10      	pop	{r4, pc}
 80001f0:	2000000c 	.word	0x2000000c
 80001f4:	00000000 	.word	0x00000000
 80001f8:	08003964 	.word	0x08003964

080001fc <frame_dummy>:
 80001fc:	b508      	push	{r3, lr}
 80001fe:	4b03      	ldr	r3, [pc, #12]	@ (800020c <frame_dummy+0x10>)
 8000200:	b11b      	cbz	r3, 800020a <frame_dummy+0xe>
 8000202:	4903      	ldr	r1, [pc, #12]	@ (8000210 <frame_dummy+0x14>)
 8000204:	4803      	ldr	r0, [pc, #12]	@ (8000214 <frame_dummy+0x18>)
 8000206:	f3af 8000 	nop.w
 800020a:	bd08      	pop	{r3, pc}
 800020c:	00000000 	.word	0x00000000
 8000210:	20000010 	.word	0x20000010
 8000214:	08003964 	.word	0x08003964

08000218 <main>:
static void MX_UART5_Init(void);
static void MX_ADC3_Init(void);
static void MX_LPUART1_UART_Init(void);

int main(void)
{
 8000218:	b580      	push	{r7, lr}
 800021a:	af00      	add	r7, sp, #0
    HAL_Init();
 800021c:	f000 fb45 	bl	80008aa <HAL_Init>
    SystemClock_Config();
 8000220:	f000 f856 	bl	80002d0 <SystemClock_Config>
    MX_GPIO_Init();
 8000224:	f000 f88e 	bl	8000344 <MX_GPIO_Init>
    MX_TIM2_Init();
 8000228:	f000 f822 	bl	8000270 <MX_TIM2_Init>
    MX_TIM4_Init();
 800022c:	f000 f838 	bl	80002a0 <MX_TIM4_Init>
    MX_I2C2_Init();
 8000230:	f000 f8b8 	bl	80003a4 <MX_I2C2_Init>
    MX_UART5_Init();
 8000234:	f000 f8bd 	bl	80003b2 <MX_UART5_Init>
    MX_ADC3_Init();
 8000238:	f000 f8c2 	bl	80003c0 <MX_ADC3_Init>
    MX_LPUART1_UART_Init();
 800023c:	f000 f8c7 	bl	80003ce <MX_LPUART1_UART_Init>

    SSD1306_Init();
 8000240:	f000 f8cc 	bl	80003dc <SSD1306_Init>
    HAL_TIM_Base_Start_IT(&htim2);
 8000244:	4806      	ldr	r0, [pc, #24]	@ (8000260 <main+0x48>)
 8000246:	f001 ff95 	bl	8002174 <HAL_TIM_Base_Start_IT>
    HAL_TIM_Base_Start_IT(&htim4);
 800024a:	4806      	ldr	r0, [pc, #24]	@ (8000264 <main+0x4c>)
 800024c:	f001 ff92 	bl	8002174 <HAL_TIM_Base_Start_IT>
    HAL_UART_Receive_IT(&huart5, &rx_byte, 1);
 8000250:	2201      	movs	r2, #1
 8000252:	4905      	ldr	r1, [pc, #20]	@ (8000268 <main+0x50>)
 8000254:	4805      	ldr	r0, [pc, #20]	@ (800026c <main+0x54>)
 8000256:	f002 f8a1 	bl	800239c <HAL_UART_Receive_IT>

    while (1)
 800025a:	bf00      	nop
 800025c:	e7fd      	b.n	800025a <main+0x42>
 800025e:	bf00      	nop
 8000260:	20000110 	.word	0x20000110
 8000264:	2000015c 	.word	0x2000015c
 8000268:	200001a8 	.word	0x200001a8
 800026c:	2000007c 	.word	0x2000007c

08000270 <MX_TIM2_Init>:
    if (htim->Instance == TIM4) { // 1ms multiplexação
        refreshSevenSegDisplays();
    }
}

static void MX_TIM2_Init(void) {
 8000270:	b580      	push	{r7, lr}
 8000272:	af00      	add	r7, sp, #0
    htim2.Instance = TIM2;
 8000274:	4b09      	ldr	r3, [pc, #36]	@ (800029c <MX_TIM2_Init+0x2c>)
 8000276:	f04f 4280 	mov.w	r2, #1073741824	@ 0x40000000
 800027a:	601a      	str	r2, [r3, #0]
    htim2.Init.Prescaler = 16999;
 800027c:	4b07      	ldr	r3, [pc, #28]	@ (800029c <MX_TIM2_Init+0x2c>)
 800027e:	f244 2267 	movw	r2, #16999	@ 0x4267
 8000282:	605a      	str	r2, [r3, #4]
    htim2.Init.CounterMode = TIM_COUNTERMODE_UP;
 8000284:	4b05      	ldr	r3, [pc, #20]	@ (800029c <MX_TIM2_Init+0x2c>)
 8000286:	2200      	movs	r2, #0
 8000288:	609a      	str	r2, [r3, #8]
    htim2.Init.Period = 999;
 800028a:	4b04      	ldr	r3, [pc, #16]	@ (800029c <MX_TIM2_Init+0x2c>)
 800028c:	f240 32e7 	movw	r2, #999	@ 0x3e7
 8000290:	60da      	str	r2, [r3, #12]
    HAL_TIM_Base_Init(&htim2);
 8000292:	4802      	ldr	r0, [pc, #8]	@ (800029c <MX_TIM2_Init+0x2c>)
 8000294:	f001 ff16 	bl	80020c4 <HAL_TIM_Base_Init>
}
 8000298:	bf00      	nop
 800029a:	bd80      	pop	{r7, pc}
 800029c:	20000110 	.word	0x20000110

080002a0 <MX_TIM4_Init>:

static void MX_TIM4_Init(void) {
 80002a0:	b580      	push	{r7, lr}
 80002a2:	af00      	add	r7, sp, #0
    htim4.Instance = TIM4;
 80002a4:	4b08      	ldr	r3, [pc, #32]	@ (80002c8 <MX_TIM4_Init+0x28>)
 80002a6:	4a09      	ldr	r2, [pc, #36]	@ (80002cc <MX_TIM4_Init+0x2c>)
 80002a8:	601a      	str	r2, [r3, #0]
    htim4.Init.Prescaler = 169;
 80002aa:	4b07      	ldr	r3, [pc, #28]	@ (80002c8 <MX_TIM4_Init+0x28>)
 80002ac:	22a9      	movs	r2, #169	@ 0xa9
 80002ae:	605a      	str	r2, [r3, #4]
    htim4.Init.CounterMode = TIM_COUNTERMODE_UP;
 80002b0:	4b05      	ldr	r3, [pc, #20]	@ (80002c8 <MX_TIM4_Init+0x28>)
 80002b2:	2200      	movs	r2, #0
 80002b4:	609a      	str	r2, [r3, #8]
    htim4.Init.Period = 999;
 80002b6:	4b04      	ldr	r3, [pc, #16]	@ (80002c8 <MX_TIM4_Init+0x28>)
 80002b8:	f240 32e7 	movw	r2, #999	@ 0x3e7
 80002bc:	60da      	str	r2, [r3, #12]
    HAL_TIM_Base_Init(&htim4);
 80002be:	4802      	ldr	r0, [pc, #8]	@ (80002c8 <MX_TIM4_Init+0x28>)
 80002c0:	f001 ff00 	bl	80020c4 <HAL_TIM_Base_Init>
}
 80002c4:	bf00      	nop
 80002c6:	bd80      	pop	{r7, pc}
 80002c8:	2000015c 	.word	0x2000015c
 80002cc:	40000800 	.word	0x40000800

080002d0 <SystemClock_Config>:

void SystemClock_Config(void) {
 80002d0:	b580      	push	{r7, lr}
 80002d2:	b094      	sub	sp, #80	@ 0x50
 80002d4:	af00      	add	r7, sp, #0
    RCC_OscInitTypeDef RCC_OscInitStruct = {0};
 80002d6:	f107 0318 	add.w	r3, r7, #24
 80002da:	2238      	movs	r2, #56	@ 0x38
 80002dc:	2100      	movs	r1, #0
 80002de:	4618      	mov	r0, r3
 80002e0:	f003 fb14 	bl	800390c <memset>
    RCC_ClkInitTypeDef RCC_ClkInitStruct = {0};
 80002e4:	1d3b      	adds	r3, r7, #4
 80002e6:	2200      	movs	r2, #0
 80002e8:	601a      	str	r2, [r3, #0]
 80002ea:	605a      	str	r2, [r3, #4]
 80002ec:	609a      	str	r2, [r3, #8]
 80002ee:	60da      	str	r2, [r3, #12]
 80002f0:	611a      	str	r2, [r3, #16]
    HAL_PWREx_ControlVoltageScaling(PWR_REGULATOR_VOLTAGE_SCALE1_BOOST);
 80002f2:	2000      	movs	r0, #0
 80002f4:	f001 f93c 	bl	8001570 <HAL_PWREx_ControlVoltageScaling>
    RCC_OscInitStruct.OscillatorType = RCC_OSCILLATORTYPE_HSI;
 80002f8:	2302      	movs	r3, #2
 80002fa:	61bb      	str	r3, [r7, #24]
    RCC_OscInitStruct.HSIState = RCC_HSI_ON;
 80002fc:	f44f 7380 	mov.w	r3, #256	@ 0x100
 8000300:	627b      	str	r3, [r7, #36]	@ 0x24
    RCC_OscInitStruct.PLL.PLLState = RCC_PLL_ON;
 8000302:	2302      	movs	r3, #2
 8000304:	637b      	str	r3, [r7, #52]	@ 0x34
    RCC_OscInitStruct.PLL.PLLSource = RCC_PLLSOURCE_HSI;
 8000306:	2302      	movs	r3, #2
 8000308:	63bb      	str	r3, [r7, #56]	@ 0x38
    RCC_OscInitStruct.PLL.PLLM = RCC_PLLM_DIV4;
 800030a:	2304      	movs	r3, #4
 800030c:	63fb      	str	r3, [r7, #60]	@ 0x3c
    RCC_OscInitStruct.PLL.PLLN = 85;
 800030e:	2355      	movs	r3, #85	@ 0x55
 8000310:	643b      	str	r3, [r7, #64]	@ 0x40
    RCC_OscInitStruct.PLL.PLLP = RCC_PLLP_DIV2;
 8000312:	2302      	movs	r3, #2
 8000314:	647b      	str	r3, [r7, #68]	@ 0x44
    RCC_OscInitStruct.PLL.PLLQ = RCC_PLLQ_DIV2;
 8000316:	2302      	movs	r3, #2
 8000318:	64bb      	str	r3, [r7, #72]	@ 0x48
    RCC_OscInitStruct.PLL.PLLR = RCC_PLLR_DIV2;
 800031a:	2302      	movs	r3, #2
 800031c:	64fb      	str	r3, [r7, #76]	@ 0x4c
    HAL_RCC_OscConfig(&RCC_OscInitStruct);
 800031e:	f107 0318 	add.w	r3, r7, #24
 8000322:	4618      	mov	r0, r3
 8000324:	f001 f9d8 	bl	80016d8 <HAL_RCC_OscConfig>
    RCC_ClkInitStruct.ClockType = RCC_CLOCKTYPE_HCLK|RCC_CLOCKTYPE_SYSCLK|RCC_CLOCKTYPE_PCLK1|RCC_CLOCKTYPE_PCLK2;
 8000328:	230f      	movs	r3, #15
 800032a:	607b      	str	r3, [r7, #4]
    RCC_ClkInitStruct.SYSCLKSource = RCC_SYSCLKSOURCE_PLLCLK;
 800032c:	2303      	movs	r3, #3
 800032e:	60bb      	str	r3, [r7, #8]
    HAL_RCC_ClockConfig(&RCC_ClkInitStruct, FLASH_LATENCY_4);
 8000330:	1d3b      	adds	r3, r7, #4
 8000332:	2104      	movs	r1, #4
 8000334:	4618      	mov	r0, r3
 8000336:	f001 fce1 	bl	8001cfc <HAL_RCC_ClockConfig>
}
 800033a:	bf00      	nop
 800033c:	3750      	adds	r7, #80	@ 0x50
 800033e:	46bd      	mov	sp, r7
 8000340:	bd80      	pop	{r7, pc}
	...

08000344 <MX_GPIO_Init>:

static void MX_GPIO_Init(void) {
 8000344:	b480      	push	{r7}
 8000346:	b085      	sub	sp, #20
 8000348:	af00      	add	r7, sp, #0
    __HAL_RCC_GPIOC_CLK_ENABLE();
 800034a:	4b15      	ldr	r3, [pc, #84]	@ (80003a0 <MX_GPIO_Init+0x5c>)
 800034c:	6cdb      	ldr	r3, [r3, #76]	@ 0x4c
 800034e:	4a14      	ldr	r2, [pc, #80]	@ (80003a0 <MX_GPIO_Init+0x5c>)
 8000350:	f043 0304 	orr.w	r3, r3, #4
 8000354:	64d3      	str	r3, [r2, #76]	@ 0x4c
 8000356:	4b12      	ldr	r3, [pc, #72]	@ (80003a0 <MX_GPIO_Init+0x5c>)
 8000358:	6cdb      	ldr	r3, [r3, #76]	@ 0x4c
 800035a:	f003 0304 	and.w	r3, r3, #4
 800035e:	60fb      	str	r3, [r7, #12]
 8000360:	68fb      	ldr	r3, [r7, #12]
    __HAL_RCC_GPIOB_CLK_ENABLE();
 8000362:	4b0f      	ldr	r3, [pc, #60]	@ (80003a0 <MX_GPIO_Init+0x5c>)
 8000364:	6cdb      	ldr	r3, [r3, #76]	@ 0x4c
 8000366:	4a0e      	ldr	r2, [pc, #56]	@ (80003a0 <MX_GPIO_Init+0x5c>)
 8000368:	f043 0302 	orr.w	r3, r3, #2
 800036c:	64d3      	str	r3, [r2, #76]	@ 0x4c
 800036e:	4b0c      	ldr	r3, [pc, #48]	@ (80003a0 <MX_GPIO_Init+0x5c>)
 8000370:	6cdb      	ldr	r3, [r3, #76]	@ 0x4c
 8000372:	f003 0302 	and.w	r3, r3, #2
 8000376:	60bb      	str	r3, [r7, #8]
 8000378:	68bb      	ldr	r3, [r7, #8]
    __HAL_RCC_GPIOA_CLK_ENABLE();
 800037a:	4b09      	ldr	r3, [pc, #36]	@ (80003a0 <MX_GPIO_Init+0x5c>)
 800037c:	6cdb      	ldr	r3, [r3, #76]	@ 0x4c
 800037e:	4a08      	ldr	r2, [pc, #32]	@ (80003a0 <MX_GPIO_Init+0x5c>)
 8000380:	f043 0301 	orr.w	r3, r3, #1
 8000384:	64d3      	str	r3, [r2, #76]	@ 0x4c
 8000386:	4b06      	ldr	r3, [pc, #24]	@ (80003a0 <MX_GPIO_Init+0x5c>)
 8000388:	6cdb      	ldr	r3, [r3, #76]	@ 0x4c
 800038a:	f003 0301 	and.w	r3, r3, #1
 800038e:	607b      	str	r3, [r7, #4]
 8000390:	687b      	ldr	r3, [r7, #4]
}
 8000392:	bf00      	nop
 8000394:	3714      	adds	r7, #20
 8000396:	46bd      	mov	sp, r7
 8000398:	f85d 7b04 	ldr.w	r7, [sp], #4
 800039c:	4770      	bx	lr
 800039e:	bf00      	nop
 80003a0:	40021000 	.word	0x40021000

080003a4 <MX_I2C2_Init>:

static void MX_I2C2_Init(void) {}
 80003a4:	b480      	push	{r7}
 80003a6:	af00      	add	r7, sp, #0
 80003a8:	bf00      	nop
 80003aa:	46bd      	mov	sp, r7
 80003ac:	f85d 7b04 	ldr.w	r7, [sp], #4
 80003b0:	4770      	bx	lr

080003b2 <MX_UART5_Init>:
static void MX_UART5_Init(void) {}
 80003b2:	b480      	push	{r7}
 80003b4:	af00      	add	r7, sp, #0
 80003b6:	bf00      	nop
 80003b8:	46bd      	mov	sp, r7
 80003ba:	f85d 7b04 	ldr.w	r7, [sp], #4
 80003be:	4770      	bx	lr

080003c0 <MX_ADC3_Init>:
static void MX_ADC3_Init(void) {}
 80003c0:	b480      	push	{r7}
 80003c2:	af00      	add	r7, sp, #0
 80003c4:	bf00      	nop
 80003c6:	46bd      	mov	sp, r7
 80003c8:	f85d 7b04 	ldr.w	r7, [sp], #4
 80003cc:	4770      	bx	lr

080003ce <MX_LPUART1_UART_Init>:
static void MX_LPUART1_UART_Init(void) {}
 80003ce:	b480      	push	{r7}
 80003d0:	af00      	add	r7, sp, #0
 80003d2:	bf00      	nop
 80003d4:	46bd      	mov	sp, r7
 80003d6:	f85d 7b04 	ldr.w	r7, [sp], #4
 80003da:	4770      	bx	lr

080003dc <SSD1306_Init>:
		}
	}
}

char SSD1306_Init(void)
{
 80003dc:	b580      	push	{r7, lr}
 80003de:	b082      	sub	sp, #8
 80003e0:	af00      	add	r7, sp, #0

	/* Init I2C */
	ssd1306_I2C_Init();
 80003e2:	f000 f905 	bl	80005f0 <ssd1306_I2C_Init>

	/* Check if LCD connected to I2C */
	if (HAL_I2C_IsDeviceReady(&hi2c2, SSD1306_I2C_ADDR, 1, 20000) != HAL_OK)
 80003e6:	f644 6320 	movw	r3, #20000	@ 0x4e20
 80003ea:	2201      	movs	r2, #1
 80003ec:	2178      	movs	r1, #120	@ 0x78
 80003ee:	485b      	ldr	r0, [pc, #364]	@ (800055c <SSD1306_Init+0x180>)
 80003f0:	f000 fdb0 	bl	8000f54 <HAL_I2C_IsDeviceReady>
 80003f4:	4603      	mov	r3, r0
 80003f6:	2b00      	cmp	r3, #0
 80003f8:	d001      	beq.n	80003fe <SSD1306_Init+0x22>
	{
		/* Return false */
		return 0;
 80003fa:	2300      	movs	r3, #0
 80003fc:	e0a9      	b.n	8000552 <SSD1306_Init+0x176>
	}

	/* A little delay */
	uint32_t p = 2500;
 80003fe:	f640 13c4 	movw	r3, #2500	@ 0x9c4
 8000402:	607b      	str	r3, [r7, #4]
	while (p > 0)
 8000404:	e002      	b.n	800040c <SSD1306_Init+0x30>
		p--;
 8000406:	687b      	ldr	r3, [r7, #4]
 8000408:	3b01      	subs	r3, #1
 800040a:	607b      	str	r3, [r7, #4]
	while (p > 0)
 800040c:	687b      	ldr	r3, [r7, #4]
 800040e:	2b00      	cmp	r3, #0
 8000410:	d1f9      	bne.n	8000406 <SSD1306_Init+0x2a>

	/* Init LCD */
	SSD1306_WRITECOMMAND(0xAE); // display off
 8000412:	22ae      	movs	r2, #174	@ 0xae
 8000414:	2100      	movs	r1, #0
 8000416:	2078      	movs	r0, #120	@ 0x78
 8000418:	f000 f966 	bl	80006e8 <ssd1306_I2C_Write>
	SSD1306_WRITECOMMAND(0x20); // Set Memory Addressing Mode
 800041c:	2220      	movs	r2, #32
 800041e:	2100      	movs	r1, #0
 8000420:	2078      	movs	r0, #120	@ 0x78
 8000422:	f000 f961 	bl	80006e8 <ssd1306_I2C_Write>
	SSD1306_WRITECOMMAND(0x10); // 00,Horizontal Addressing Mode;01,Vertical Addressing Mode;10,Page Addressing Mode (RESET);11,Invalid
 8000426:	2210      	movs	r2, #16
 8000428:	2100      	movs	r1, #0
 800042a:	2078      	movs	r0, #120	@ 0x78
 800042c:	f000 f95c 	bl	80006e8 <ssd1306_I2C_Write>
	SSD1306_WRITECOMMAND(0xB0); // Set Page Start Address for Page Addressing Mode,0-7
 8000430:	22b0      	movs	r2, #176	@ 0xb0
 8000432:	2100      	movs	r1, #0
 8000434:	2078      	movs	r0, #120	@ 0x78
 8000436:	f000 f957 	bl	80006e8 <ssd1306_I2C_Write>
	SSD1306_WRITECOMMAND(0xC8); // Set COM Output Scan Direction
 800043a:	22c8      	movs	r2, #200	@ 0xc8
 800043c:	2100      	movs	r1, #0
 800043e:	2078      	movs	r0, #120	@ 0x78
 8000440:	f000 f952 	bl	80006e8 <ssd1306_I2C_Write>
	SSD1306_WRITECOMMAND(0x00); //---set low column address
 8000444:	2200      	movs	r2, #0
 8000446:	2100      	movs	r1, #0
 8000448:	2078      	movs	r0, #120	@ 0x78
 800044a:	f000 f94d 	bl	80006e8 <ssd1306_I2C_Write>
	SSD1306_WRITECOMMAND(0x10); //---set high column address
 800044e:	2210      	movs	r2, #16
 8000450:	2100      	movs	r1, #0
 8000452:	2078      	movs	r0, #120	@ 0x78
 8000454:	f000 f948 	bl	80006e8 <ssd1306_I2C_Write>
	SSD1306_WRITECOMMAND(0x40); //--set start line address
 8000458:	2240      	movs	r2, #64	@ 0x40
 800045a:	2100      	movs	r1, #0
 800045c:	2078      	movs	r0, #120	@ 0x78
 800045e:	f000 f943 	bl	80006e8 <ssd1306_I2C_Write>
	SSD1306_WRITECOMMAND(0x81); //--set contrast control register
 8000462:	2281      	movs	r2, #129	@ 0x81
 8000464:	2100      	movs	r1, #0
 8000466:	2078      	movs	r0, #120	@ 0x78
 8000468:	f000 f93e 	bl	80006e8 <ssd1306_I2C_Write>
	SSD1306_WRITECOMMAND(0xFF);
 800046c:	22ff      	movs	r2, #255	@ 0xff
 800046e:	2100      	movs	r1, #0
 8000470:	2078      	movs	r0, #120	@ 0x78
 8000472:	f000 f939 	bl	80006e8 <ssd1306_I2C_Write>
	SSD1306_WRITECOMMAND(0xA1); //--set segment re-map 0 to 127
 8000476:	22a1      	movs	r2, #161	@ 0xa1
 8000478:	2100      	movs	r1, #0
 800047a:	2078      	movs	r0, #120	@ 0x78
 800047c:	f000 f934 	bl	80006e8 <ssd1306_I2C_Write>
	SSD1306_WRITECOMMAND(0xA6); //--set normal display
 8000480:	22a6      	movs	r2, #166	@ 0xa6
 8000482:	2100      	movs	r1, #0
 8000484:	2078      	movs	r0, #120	@ 0x78
 8000486:	f000 f92f 	bl	80006e8 <ssd1306_I2C_Write>
	SSD1306_WRITECOMMAND(0xA8); //--set multiplex ratio(1 to 64)
 800048a:	22a8      	movs	r2, #168	@ 0xa8
 800048c:	2100      	movs	r1, #0
 800048e:	2078      	movs	r0, #120	@ 0x78
 8000490:	f000 f92a 	bl	80006e8 <ssd1306_I2C_Write>
	SSD1306_WRITECOMMAND(0x3F); //
 8000494:	223f      	movs	r2, #63	@ 0x3f
 8000496:	2100      	movs	r1, #0
 8000498:	2078      	movs	r0, #120	@ 0x78
 800049a:	f000 f925 	bl	80006e8 <ssd1306_I2C_Write>
	SSD1306_WRITECOMMAND(0xA4); // 0xa4,Output follows RAM content;0xa5,Output ignores RAM content
 800049e:	22a4      	movs	r2, #164	@ 0xa4
 80004a0:	2100      	movs	r1, #0
 80004a2:	2078      	movs	r0, #120	@ 0x78
 80004a4:	f000 f920 	bl	80006e8 <ssd1306_I2C_Write>
	SSD1306_WRITECOMMAND(0xD3); //-set display offset
 80004a8:	22d3      	movs	r2, #211	@ 0xd3
 80004aa:	2100      	movs	r1, #0
 80004ac:	2078      	movs	r0, #120	@ 0x78
 80004ae:	f000 f91b 	bl	80006e8 <ssd1306_I2C_Write>
	SSD1306_WRITECOMMAND(0x00); //-not offset
 80004b2:	2200      	movs	r2, #0
 80004b4:	2100      	movs	r1, #0
 80004b6:	2078      	movs	r0, #120	@ 0x78
 80004b8:	f000 f916 	bl	80006e8 <ssd1306_I2C_Write>
	SSD1306_WRITECOMMAND(0xD5); //--set display clock divide ratio/oscillator frequency
 80004bc:	22d5      	movs	r2, #213	@ 0xd5
 80004be:	2100      	movs	r1, #0
 80004c0:	2078      	movs	r0, #120	@ 0x78
 80004c2:	f000 f911 	bl	80006e8 <ssd1306_I2C_Write>
	SSD1306_WRITECOMMAND(0xF0); //--set divide ratio
 80004c6:	22f0      	movs	r2, #240	@ 0xf0
 80004c8:	2100      	movs	r1, #0
 80004ca:	2078      	movs	r0, #120	@ 0x78
 80004cc:	f000 f90c 	bl	80006e8 <ssd1306_I2C_Write>
	SSD1306_WRITECOMMAND(0xD9); //--set pre-charge period
 80004d0:	22d9      	movs	r2, #217	@ 0xd9
 80004d2:	2100      	movs	r1, #0
 80004d4:	2078      	movs	r0, #120	@ 0x78
 80004d6:	f000 f907 	bl	80006e8 <ssd1306_I2C_Write>
	SSD1306_WRITECOMMAND(0x22); //
 80004da:	2222      	movs	r2, #34	@ 0x22
 80004dc:	2100      	movs	r1, #0
 80004de:	2078      	movs	r0, #120	@ 0x78
 80004e0:	f000 f902 	bl	80006e8 <ssd1306_I2C_Write>
	SSD1306_WRITECOMMAND(0xDA); //--set com pins hardware configuration
 80004e4:	22da      	movs	r2, #218	@ 0xda
 80004e6:	2100      	movs	r1, #0
 80004e8:	2078      	movs	r0, #120	@ 0x78
 80004ea:	f000 f8fd 	bl	80006e8 <ssd1306_I2C_Write>
	SSD1306_WRITECOMMAND(0x12);
 80004ee:	2212      	movs	r2, #18
 80004f0:	2100      	movs	r1, #0
 80004f2:	2078      	movs	r0, #120	@ 0x78
 80004f4:	f000 f8f8 	bl	80006e8 <ssd1306_I2C_Write>
	SSD1306_WRITECOMMAND(0xDB); //--set vcomh
 80004f8:	22db      	movs	r2, #219	@ 0xdb
 80004fa:	2100      	movs	r1, #0
 80004fc:	2078      	movs	r0, #120	@ 0x78
 80004fe:	f000 f8f3 	bl	80006e8 <ssd1306_I2C_Write>
	SSD1306_WRITECOMMAND(0x20); // 0x20,0.77xVcc
 8000502:	2220      	movs	r2, #32
 8000504:	2100      	movs	r1, #0
 8000506:	2078      	movs	r0, #120	@ 0x78
 8000508:	f000 f8ee 	bl	80006e8 <ssd1306_I2C_Write>
	SSD1306_WRITECOMMAND(0x8D); //--set DC-DC enable
 800050c:	228d      	movs	r2, #141	@ 0x8d
 800050e:	2100      	movs	r1, #0
 8000510:	2078      	movs	r0, #120	@ 0x78
 8000512:	f000 f8e9 	bl	80006e8 <ssd1306_I2C_Write>
	SSD1306_WRITECOMMAND(0x14); //
 8000516:	2214      	movs	r2, #20
 8000518:	2100      	movs	r1, #0
 800051a:	2078      	movs	r0, #120	@ 0x78
 800051c:	f000 f8e4 	bl	80006e8 <ssd1306_I2C_Write>
	SSD1306_WRITECOMMAND(0xAF); //--turn on SSD1306 panel
 8000520:	22af      	movs	r2, #175	@ 0xaf
 8000522:	2100      	movs	r1, #0
 8000524:	2078      	movs	r0, #120	@ 0x78
 8000526:	f000 f8df 	bl	80006e8 <ssd1306_I2C_Write>

	SSD1306_WRITECOMMAND(SSD1306_DEACTIVATE_SCROLL);
 800052a:	222e      	movs	r2, #46	@ 0x2e
 800052c:	2100      	movs	r1, #0
 800052e:	2078      	movs	r0, #120	@ 0x78
 8000530:	f000 f8da 	bl	80006e8 <ssd1306_I2C_Write>

	/* Clear screen */
	SSD1306_Fill(SSD1306_COLOR_BLACK);
 8000534:	2000      	movs	r0, #0
 8000536:	f000 f843 	bl	80005c0 <SSD1306_Fill>

	/* Update screen */
	SSD1306_UpdateScreen();
 800053a:	f000 f813 	bl	8000564 <SSD1306_UpdateScreen>

	/* Set default values */
	SSD1306.CurrentX = 0;
 800053e:	4b08      	ldr	r3, [pc, #32]	@ (8000560 <SSD1306_Init+0x184>)
 8000540:	2200      	movs	r2, #0
 8000542:	801a      	strh	r2, [r3, #0]
	SSD1306.CurrentY = 0;
 8000544:	4b06      	ldr	r3, [pc, #24]	@ (8000560 <SSD1306_Init+0x184>)
 8000546:	2200      	movs	r2, #0
 8000548:	805a      	strh	r2, [r3, #2]

	/* Initialized OK */
	SSD1306.Initialized = 1;
 800054a:	4b05      	ldr	r3, [pc, #20]	@ (8000560 <SSD1306_Init+0x184>)
 800054c:	2201      	movs	r2, #1
 800054e:	715a      	strb	r2, [r3, #5]

	/* Return OK */
	return 1;
 8000550:	2301      	movs	r3, #1
}
 8000552:	4618      	mov	r0, r3
 8000554:	3708      	adds	r7, #8
 8000556:	46bd      	mov	sp, r7
 8000558:	bd80      	pop	{r7, pc}
 800055a:	bf00      	nop
 800055c:	20000028 	.word	0x20000028
 8000560:	200005ac 	.word	0x200005ac

08000564 <SSD1306_UpdateScreen>:

void SSD1306_UpdateScreen(void)
{
 8000564:	b580      	push	{r7, lr}
 8000566:	b082      	sub	sp, #8
 8000568:	af00      	add	r7, sp, #0
	uint8_t m;

	for (m = 0; m < 8; m++)
 800056a:	2300      	movs	r3, #0
 800056c:	71fb      	strb	r3, [r7, #7]
 800056e:	e01d      	b.n	80005ac <SSD1306_UpdateScreen+0x48>
	{
		SSD1306_WRITECOMMAND(0xB0 + m);
 8000570:	79fb      	ldrb	r3, [r7, #7]
 8000572:	3b50      	subs	r3, #80	@ 0x50
 8000574:	b2db      	uxtb	r3, r3
 8000576:	461a      	mov	r2, r3
 8000578:	2100      	movs	r1, #0
 800057a:	2078      	movs	r0, #120	@ 0x78
 800057c:	f000 f8b4 	bl	80006e8 <ssd1306_I2C_Write>
		SSD1306_WRITECOMMAND(0x00);
 8000580:	2200      	movs	r2, #0
 8000582:	2100      	movs	r1, #0
 8000584:	2078      	movs	r0, #120	@ 0x78
 8000586:	f000 f8af 	bl	80006e8 <ssd1306_I2C_Write>
		SSD1306_WRITECOMMAND(0x10);
 800058a:	2210      	movs	r2, #16
 800058c:	2100      	movs	r1, #0
 800058e:	2078      	movs	r0, #120	@ 0x78
 8000590:	f000 f8aa 	bl	80006e8 <ssd1306_I2C_Write>

		/* Write multi data */
		ssd1306_I2C_WriteMulti(SSD1306_I2C_ADDR, 0x40, &SSD1306_Buffer[SSD1306_WIDTH * m], SSD1306_WIDTH);
 8000594:	79fb      	ldrb	r3, [r7, #7]
 8000596:	01db      	lsls	r3, r3, #7
 8000598:	4a08      	ldr	r2, [pc, #32]	@ (80005bc <SSD1306_UpdateScreen+0x58>)
 800059a:	441a      	add	r2, r3
 800059c:	2380      	movs	r3, #128	@ 0x80
 800059e:	2140      	movs	r1, #64	@ 0x40
 80005a0:	2078      	movs	r0, #120	@ 0x78
 80005a2:	f000 f83b 	bl	800061c <ssd1306_I2C_WriteMulti>
	for (m = 0; m < 8; m++)
 80005a6:	79fb      	ldrb	r3, [r7, #7]
 80005a8:	3301      	adds	r3, #1
 80005aa:	71fb      	strb	r3, [r7, #7]
 80005ac:	79fb      	ldrb	r3, [r7, #7]
 80005ae:	2b07      	cmp	r3, #7
 80005b0:	d9de      	bls.n	8000570 <SSD1306_UpdateScreen+0xc>
	}
}
 80005b2:	bf00      	nop
 80005b4:	bf00      	nop
 80005b6:	3708      	adds	r7, #8
 80005b8:	46bd      	mov	sp, r7
 80005ba:	bd80      	pop	{r7, pc}
 80005bc:	200001ac 	.word	0x200001ac

080005c0 <SSD1306_Fill>:
		SSD1306_Buffer[i] = ~SSD1306_Buffer[i];
	}
}

void SSD1306_Fill(SSD1306_COLOR_t color)
{
 80005c0:	b580      	push	{r7, lr}
 80005c2:	b082      	sub	sp, #8
 80005c4:	af00      	add	r7, sp, #0
 80005c6:	4603      	mov	r3, r0
 80005c8:	71fb      	strb	r3, [r7, #7]
	/* Set memory */
	memset(SSD1306_Buffer, (color == SSD1306_COLOR_BLACK) ? 0x00 : 0xFF, sizeof(SSD1306_Buffer));
 80005ca:	79fb      	ldrb	r3, [r7, #7]
 80005cc:	2b00      	cmp	r3, #0
 80005ce:	d101      	bne.n	80005d4 <SSD1306_Fill+0x14>
 80005d0:	2300      	movs	r3, #0
 80005d2:	e000      	b.n	80005d6 <SSD1306_Fill+0x16>
 80005d4:	23ff      	movs	r3, #255	@ 0xff
 80005d6:	f44f 6280 	mov.w	r2, #1024	@ 0x400
 80005da:	4619      	mov	r1, r3
 80005dc:	4803      	ldr	r0, [pc, #12]	@ (80005ec <SSD1306_Fill+0x2c>)
 80005de:	f003 f995 	bl	800390c <memset>
}
 80005e2:	bf00      	nop
 80005e4:	3708      	adds	r7, #8
 80005e6:	46bd      	mov	sp, r7
 80005e8:	bd80      	pop	{r7, pc}
 80005ea:	bf00      	nop
 80005ec:	200001ac 	.word	0x200001ac

080005f0 <ssd1306_I2C_Init>:
// |_____|____|\_____|
//
/////////////////////////////////////////////////////////////////////////////////////////////////////////

void ssd1306_I2C_Init()
{
 80005f0:	b480      	push	{r7}
 80005f2:	b083      	sub	sp, #12
 80005f4:	af00      	add	r7, sp, #0
	// MX_I2C1_Init();
	uint32_t p = 250000;
 80005f6:	4b08      	ldr	r3, [pc, #32]	@ (8000618 <ssd1306_I2C_Init+0x28>)
 80005f8:	607b      	str	r3, [r7, #4]
	while (p > 0)
 80005fa:	e002      	b.n	8000602 <ssd1306_I2C_Init+0x12>
		p--;
 80005fc:	687b      	ldr	r3, [r7, #4]
 80005fe:	3b01      	subs	r3, #1
 8000600:	607b      	str	r3, [r7, #4]
	while (p > 0)
 8000602:	687b      	ldr	r3, [r7, #4]
 8000604:	2b00      	cmp	r3, #0
 8000606:	d1f9      	bne.n	80005fc <ssd1306_I2C_Init+0xc>
	// HAL_I2C_DeInit(&hi2c2);
	// p = 250000;
	// while(p>0)
	//	p--;
	// MX_I2C1_Init();
}
 8000608:	bf00      	nop
 800060a:	bf00      	nop
 800060c:	370c      	adds	r7, #12
 800060e:	46bd      	mov	sp, r7
 8000610:	f85d 7b04 	ldr.w	r7, [sp], #4
 8000614:	4770      	bx	lr
 8000616:	bf00      	nop
 8000618:	0003d090 	.word	0x0003d090

0800061c <ssd1306_I2C_WriteMulti>:

void ssd1306_I2C_WriteMulti(uint8_t address, uint8_t reg, uint8_t *data, uint16_t count)
{
 800061c:	b590      	push	{r4, r7, lr}
 800061e:	b0c7      	sub	sp, #284	@ 0x11c
 8000620:	af02      	add	r7, sp, #8
 8000622:	4604      	mov	r4, r0
 8000624:	4608      	mov	r0, r1
 8000626:	f507 7188 	add.w	r1, r7, #272	@ 0x110
 800062a:	f5a1 7188 	sub.w	r1, r1, #272	@ 0x110
 800062e:	600a      	str	r2, [r1, #0]
 8000630:	4619      	mov	r1, r3
 8000632:	f507 7388 	add.w	r3, r7, #272	@ 0x110
 8000636:	f2a3 1309 	subw	r3, r3, #265	@ 0x109
 800063a:	4622      	mov	r2, r4
 800063c:	701a      	strb	r2, [r3, #0]
 800063e:	f507 7388 	add.w	r3, r7, #272	@ 0x110
 8000642:	f5a3 7385 	sub.w	r3, r3, #266	@ 0x10a
 8000646:	4602      	mov	r2, r0
 8000648:	701a      	strb	r2, [r3, #0]
 800064a:	f507 7388 	add.w	r3, r7, #272	@ 0x110
 800064e:	f5a3 7386 	sub.w	r3, r3, #268	@ 0x10c
 8000652:	460a      	mov	r2, r1
 8000654:	801a      	strh	r2, [r3, #0]
	uint8_t dt[256];
	dt[0] = reg;
 8000656:	f507 7388 	add.w	r3, r7, #272	@ 0x110
 800065a:	f5a3 7382 	sub.w	r3, r3, #260	@ 0x104
 800065e:	f507 7288 	add.w	r2, r7, #272	@ 0x110
 8000662:	f5a2 7285 	sub.w	r2, r2, #266	@ 0x10a
 8000666:	7812      	ldrb	r2, [r2, #0]
 8000668:	701a      	strb	r2, [r3, #0]
	uint8_t i;
	for (i = 0; i < count; i++)
 800066a:	2300      	movs	r3, #0
 800066c:	f887 310f 	strb.w	r3, [r7, #271]	@ 0x10f
 8000670:	e015      	b.n	800069e <ssd1306_I2C_WriteMulti+0x82>
		dt[i + 1] = data[i];
 8000672:	f897 310f 	ldrb.w	r3, [r7, #271]	@ 0x10f
 8000676:	f507 7288 	add.w	r2, r7, #272	@ 0x110
 800067a:	f5a2 7288 	sub.w	r2, r2, #272	@ 0x110
 800067e:	6812      	ldr	r2, [r2, #0]
 8000680:	441a      	add	r2, r3
 8000682:	f897 310f 	ldrb.w	r3, [r7, #271]	@ 0x10f
 8000686:	3301      	adds	r3, #1
 8000688:	7811      	ldrb	r1, [r2, #0]
 800068a:	f507 7288 	add.w	r2, r7, #272	@ 0x110
 800068e:	f5a2 7282 	sub.w	r2, r2, #260	@ 0x104
 8000692:	54d1      	strb	r1, [r2, r3]
	for (i = 0; i < count; i++)
 8000694:	f897 310f 	ldrb.w	r3, [r7, #271]	@ 0x10f
 8000698:	3301      	adds	r3, #1
 800069a:	f887 310f 	strb.w	r3, [r7, #271]	@ 0x10f
 800069e:	f897 310f 	ldrb.w	r3, [r7, #271]	@ 0x10f
 80006a2:	b29b      	uxth	r3, r3
 80006a4:	f507 7288 	add.w	r2, r7, #272	@ 0x110
 80006a8:	f5a2 7286 	sub.w	r2, r2, #268	@ 0x10c
 80006ac:	8812      	ldrh	r2, [r2, #0]
 80006ae:	429a      	cmp	r2, r3
 80006b0:	d8df      	bhi.n	8000672 <ssd1306_I2C_WriteMulti+0x56>
	HAL_I2C_Master_Transmit(&hi2c2, address, dt, count + 1, 10);
 80006b2:	f507 7388 	add.w	r3, r7, #272	@ 0x110
 80006b6:	f2a3 1309 	subw	r3, r3, #265	@ 0x109
 80006ba:	781b      	ldrb	r3, [r3, #0]
 80006bc:	b299      	uxth	r1, r3
 80006be:	f507 7388 	add.w	r3, r7, #272	@ 0x110
 80006c2:	f5a3 7386 	sub.w	r3, r3, #268	@ 0x10c
 80006c6:	881b      	ldrh	r3, [r3, #0]
 80006c8:	3301      	adds	r3, #1
 80006ca:	b29b      	uxth	r3, r3
 80006cc:	f107 020c 	add.w	r2, r7, #12
 80006d0:	200a      	movs	r0, #10
 80006d2:	9000      	str	r0, [sp, #0]
 80006d4:	4803      	ldr	r0, [pc, #12]	@ (80006e4 <ssd1306_I2C_WriteMulti+0xc8>)
 80006d6:	f000 fb25 	bl	8000d24 <HAL_I2C_Master_Transmit>
}
 80006da:	bf00      	nop
 80006dc:	f507 778a 	add.w	r7, r7, #276	@ 0x114
 80006e0:	46bd      	mov	sp, r7
 80006e2:	bd90      	pop	{r4, r7, pc}
 80006e4:	20000028 	.word	0x20000028

080006e8 <ssd1306_I2C_Write>:

void ssd1306_I2C_Write(uint8_t address, uint8_t reg, uint8_t data)
{
 80006e8:	b580      	push	{r7, lr}
 80006ea:	b086      	sub	sp, #24
 80006ec:	af02      	add	r7, sp, #8
 80006ee:	4603      	mov	r3, r0
 80006f0:	71fb      	strb	r3, [r7, #7]
 80006f2:	460b      	mov	r3, r1
 80006f4:	71bb      	strb	r3, [r7, #6]
 80006f6:	4613      	mov	r3, r2
 80006f8:	717b      	strb	r3, [r7, #5]
	uint8_t dt[2];
	dt[0] = reg;
 80006fa:	79bb      	ldrb	r3, [r7, #6]
 80006fc:	733b      	strb	r3, [r7, #12]
	dt[1] = data;
 80006fe:	797b      	ldrb	r3, [r7, #5]
 8000700:	737b      	strb	r3, [r7, #13]
	HAL_I2C_Master_Transmit(&hi2c2, address, dt, 2, 10);
 8000702:	79fb      	ldrb	r3, [r7, #7]
 8000704:	b299      	uxth	r1, r3
 8000706:	f107 020c 	add.w	r2, r7, #12
 800070a:	230a      	movs	r3, #10
 800070c:	9300      	str	r3, [sp, #0]
 800070e:	2302      	movs	r3, #2
 8000710:	4803      	ldr	r0, [pc, #12]	@ (8000720 <ssd1306_I2C_Write+0x38>)
 8000712:	f000 fb07 	bl	8000d24 <HAL_I2C_Master_Transmit>
}
 8000716:	bf00      	nop
 8000718:	3710      	adds	r7, #16
 800071a:	46bd      	mov	sp, r7
 800071c:	bd80      	pop	{r7, pc}
 800071e:	bf00      	nop
 8000720:	20000028 	.word	0x20000028

08000724 <HAL_MspInit>:
void HAL_TIM_MspPostInit(TIM_HandleTypeDef *htim);
                    /**
  * Initializes the Global MSP.
  */
void HAL_MspInit(void)
{
 8000724:	b580      	push	{r7, lr}
 8000726:	b082      	sub	sp, #8
 8000728:	af00      	add	r7, sp, #0

  /* USER CODE BEGIN MspInit 0 */

  /* USER CODE END MspInit 0 */

  __HAL_RCC_SYSCFG_CLK_ENABLE();
 800072a:	4b0f      	ldr	r3, [pc, #60]	@ (8000768 <HAL_MspInit+0x44>)
 800072c:	6e1b      	ldr	r3, [r3, #96]	@ 0x60
 800072e:	4a0e      	ldr	r2, [pc, #56]	@ (8000768 <HAL_MspInit+0x44>)
 8000730:	f043 0301 	orr.w	r3, r3, #1
 8000734:	6613      	str	r3, [r2, #96]	@ 0x60
 8000736:	4b0c      	ldr	r3, [pc, #48]	@ (8000768 <HAL_MspInit+0x44>)
 8000738:	6e1b      	ldr	r3, [r3, #96]	@ 0x60
 800073a:	f003 0301 	and.w	r3, r3, #1
 800073e:	607b      	str	r3, [r7, #4]
 8000740:	687b      	ldr	r3, [r7, #4]
  __HAL_RCC_PWR_CLK_ENABLE();
 8000742:	4b09      	ldr	r3, [pc, #36]	@ (8000768 <HAL_MspInit+0x44>)
 8000744:	6d9b      	ldr	r3, [r3, #88]	@ 0x58
 8000746:	4a08      	ldr	r2, [pc, #32]	@ (8000768 <HAL_MspInit+0x44>)
 8000748:	f043 5380 	orr.w	r3, r3, #268435456	@ 0x10000000
 800074c:	6593      	str	r3, [r2, #88]	@ 0x58
 800074e:	4b06      	ldr	r3, [pc, #24]	@ (8000768 <HAL_MspInit+0x44>)
 8000750:	6d9b      	ldr	r3, [r3, #88]	@ 0x58
 8000752:	f003 5380 	and.w	r3, r3, #268435456	@ 0x10000000
 8000756:	603b      	str	r3, [r7, #0]
 8000758:	683b      	ldr	r3, [r7, #0]

  /* System interrupt init*/

  /** Disable the internal Pull-Up in Dead Battery pins of UCPD peripheral
  */
  HAL_PWREx_DisableUCPDDeadBattery();
 800075a:	f000 ffad 	bl	80016b8 <HAL_PWREx_DisableUCPDDeadBattery>

  /* USER CODE BEGIN MspInit 1 */

  /* USER CODE END MspInit 1 */
}
 800075e:	bf00      	nop
 8000760:	3708      	adds	r7, #8
 8000762:	46bd      	mov	sp, r7
 8000764:	bd80      	pop	{r7, pc}
 8000766:	bf00      	nop
 8000768:	40021000 	.word	0x40021000

0800076c <HAL_TIM_Base_MspInit>:
  * This function configures the hardware resources used in this example
  * @param htim_base: TIM_Base handle pointer
  * @retval None
  */
void HAL_TIM_Base_MspInit(TIM_HandleTypeDef* htim_base)
{
 800076c:	b480      	push	{r7}
 800076e:	b085      	sub	sp, #20
 8000770:	af00      	add	r7, sp, #0
 8000772:	6078      	str	r0, [r7, #4]
  if(htim_base->Instance==TIM2)
 8000774:	687b      	ldr	r3, [r7, #4]
 8000776:	681b      	ldr	r3, [r3, #0]
 8000778:	f1b3 4f80 	cmp.w	r3, #1073741824	@ 0x40000000
 800077c:	d10b      	bne.n	8000796 <HAL_TIM_Base_MspInit+0x2a>
  {
    /* USER CODE BEGIN TIM2_MspInit 0 */

    /* USER CODE END TIM2_MspInit 0 */
    /* Peripheral clock enable */
    __HAL_RCC_TIM2_CLK_ENABLE();
 800077e:	4b09      	ldr	r3, [pc, #36]	@ (80007a4 <HAL_TIM_Base_MspInit+0x38>)
 8000780:	6d9b      	ldr	r3, [r3, #88]	@ 0x58
 8000782:	4a08      	ldr	r2, [pc, #32]	@ (80007a4 <HAL_TIM_Base_MspInit+0x38>)
 8000784:	f043 0301 	orr.w	r3, r3, #1
 8000788:	6593      	str	r3, [r2, #88]	@ 0x58
 800078a:	4b06      	ldr	r3, [pc, #24]	@ (80007a4 <HAL_TIM_Base_MspInit+0x38>)
 800078c:	6d9b      	ldr	r3, [r3, #88]	@ 0x58
 800078e:	f003 0301 	and.w	r3, r3, #1
 8000792:	60fb      	str	r3, [r7, #12]
 8000794:	68fb      	ldr	r3, [r7, #12]

    /* USER CODE END TIM2_MspInit 1 */

  }

}
 8000796:	bf00      	nop
 8000798:	3714      	adds	r7, #20
 800079a:	46bd      	mov	sp, r7
 800079c:	f85d 7b04 	ldr.w	r7, [sp], #4
 80007a0:	4770      	bx	lr
 80007a2:	bf00      	nop
 80007a4:	40021000 	.word	0x40021000

080007a8 <NMI_Handler>:
/******************************************************************************/
/**
  * @brief This function handles Non maskable interrupt.
  */
void NMI_Handler(void)
{
 80007a8:	b480      	push	{r7}
 80007aa:	af00      	add	r7, sp, #0
  /* USER CODE BEGIN NonMaskableInt_IRQn 0 */

  /* USER CODE END NonMaskableInt_IRQn 0 */
  /* USER CODE BEGIN NonMaskableInt_IRQn 1 */
   while (1)
 80007ac:	bf00      	nop
 80007ae:	e7fd      	b.n	80007ac <NMI_Handler+0x4>

080007b0 <HardFault_Handler>:

/**
  * @brief This function handles Hard fault interrupt.
  */
void HardFault_Handler(void)
{
 80007b0:	b480      	push	{r7}
 80007b2:	af00      	add	r7, sp, #0
  /* USER CODE BEGIN HardFault_IRQn 0 */

  /* USER CODE END HardFault_IRQn 0 */
  while (1)
 80007b4:	bf00      	nop
 80007b6:	e7fd      	b.n	80007b4 <HardFault_Handler+0x4>

080007b8 <MemManage_Handler>:

/**
  * @brief This function handles Memory management fault.
  */
void MemManage_Handler(void)
{
 80007b8:	b480      	push	{r7}
 80007ba:	af00      	add	r7, sp, #0
  /* USER CODE BEGIN MemoryManagement_IRQn 0 */

  /* USER CODE END MemoryManagement_IRQn 0 */
  while (1)
 80007bc:	bf00      	nop
 80007be:	e7fd      	b.n	80007bc <MemManage_Handler+0x4>

080007c0 <BusFault_Handler>:

/**
  * @brief This function handles Prefetch fault, memory access fault.
  */
void BusFault_Handler(void)
{
 80007c0:	b480      	push	{r7}
 80007c2:	af00      	add	r7, sp, #0
  /* USER CODE BEGIN BusFault_IRQn 0 */

  /* USER CODE END BusFault_IRQn 0 */
  while (1)
 80007c4:	bf00      	nop
 80007c6:	e7fd      	b.n	80007c4 <BusFault_Handler+0x4>

080007c8 <UsageFault_Handler>:

/**
  * @brief This function handles Undefined instruction or illegal state.
  */
void UsageFault_Handler(void)
{
 80007c8:	b480      	push	{r7}
 80007ca:	af00      	add	r7, sp, #0
  /* USER CODE BEGIN UsageFault_IRQn 0 */

  /* USER CODE END UsageFault_IRQn 0 */
  while (1)
 80007cc:	bf00      	nop
 80007ce:	e7fd      	b.n	80007cc <UsageFault_Handler+0x4>

080007d0 <SVC_Handler>:

/**
  * @brief This function handles System service call via SWI instruction.
  */
void SVC_Handler(void)
{
 80007d0:	b480      	push	{r7}
 80007d2:	af00      	add	r7, sp, #0

  /* USER CODE END SVCall_IRQn 0 */
  /* USER CODE BEGIN SVCall_IRQn 1 */

  /* USER CODE END SVCall_IRQn 1 */
}
 80007d4:	bf00      	nop
 80007d6:	46bd      	mov	sp, r7
 80007d8:	f85d 7b04 	ldr.w	r7, [sp], #4
 80007dc:	4770      	bx	lr

080007de <DebugMon_Handler>:

/**
  * @brief This function handles Debug monitor.
  */
void DebugMon_Handler(void)
{
 80007de:	b480      	push	{r7}
 80007e0:	af00      	add	r7, sp, #0

  /* USER CODE END DebugMonitor_IRQn 0 */
  /* USER CODE BEGIN DebugMonitor_IRQn 1 */

  /* USER CODE END DebugMonitor_IRQn 1 */
}
 80007e2:	bf00      	nop
 80007e4:	46bd      	mov	sp, r7
 80007e6:	f85d 7b04 	ldr.w	r7, [sp], #4
 80007ea:	4770      	bx	lr

080007ec <PendSV_Handler>:

/**
  * @brief This function handles Pendable request for system service.
  */
void PendSV_Handler(void)
{
 80007ec:	b480      	push	{r7}
 80007ee:	af00      	add	r7, sp, #0

  /* USER CODE END PendSV_IRQn 0 */
  /* USER CODE BEGIN PendSV_IRQn 1 */

  /* USER CODE END PendSV_IRQn 1 */
}
 80007f0:	bf00      	nop
 80007f2:	46bd      	mov	sp, r7
 80007f4:	f85d 7b04 	ldr.w	r7, [sp], #4
 80007f8:	4770      	bx	lr

080007fa <SysTick_Handler>:

/**
  * @brief This function handles System tick timer.
  */
void SysTick_Handler(void)
{
 80007fa:	b580      	push	{r7, lr}
 80007fc:	af00      	add	r7, sp, #0
  /* USER CODE BEGIN SysTick_IRQn 0 */

  /* USER CODE END SysTick_IRQn 0 */
  HAL_IncTick();
 80007fe:	f000 f8a7 	bl	8000950 <HAL_IncTick>
  /* USER CODE BEGIN SysTick_IRQn 1 */

  /* USER CODE END SysTick_IRQn 1 */
}
 8000802:	bf00      	nop
 8000804:	bd80      	pop	{r7, pc}

08000806 <EXTI15_10_IRQHandler>:

/**
  * @brief This function handles EXTI line[15:10] interrupts.
  */
void EXTI15_10_IRQHandler(void)
{
 8000806:	b580      	push	{r7, lr}
 8000808:	af00      	add	r7, sp, #0
  /* USER CODE BEGIN EXTI15_10_IRQn 0 */

  /* USER CODE END EXTI15_10_IRQn 0 */
  HAL_GPIO_EXTI_IRQHandler(GPIO_PIN_11);
 800080a:	f44f 6000 	mov.w	r0, #2048	@ 0x800
 800080e:	f000 fa65 	bl	8000cdc <HAL_GPIO_EXTI_IRQHandler>
  HAL_GPIO_EXTI_IRQHandler(B1_Pin);
 8000812:	f44f 5000 	mov.w	r0, #8192	@ 0x2000
 8000816:	f000 fa61 	bl	8000cdc <HAL_GPIO_EXTI_IRQHandler>
  /* USER CODE BEGIN EXTI15_10_IRQn 1 */

  /* USER CODE END EXTI15_10_IRQn 1 */
}
 800081a:	bf00      	nop
 800081c:	bd80      	pop	{r7, pc}
	...

08000820 <UART5_IRQHandler>:

/**
  * @brief This function handles UART5 global interrupt / UART5 wake-up interrupt through EXTI line 35.
  */
void UART5_IRQHandler(void)
{
 8000820:	b580      	push	{r7, lr}
 8000822:	af00      	add	r7, sp, #0
  /* USER CODE BEGIN UART5_IRQn 0 */

  /* USER CODE END UART5_IRQn 0 */
  HAL_UART_IRQHandler(&huart5);
 8000824:	4802      	ldr	r0, [pc, #8]	@ (8000830 <UART5_IRQHandler+0x10>)
 8000826:	f001 fe05 	bl	8002434 <HAL_UART_IRQHandler>
  /* USER CODE BEGIN UART5_IRQn 1 */

  /* USER CODE END UART5_IRQn 1 */
}
 800082a:	bf00      	nop
 800082c:	bd80      	pop	{r7, pc}
 800082e:	bf00      	nop
 8000830:	2000007c 	.word	0x2000007c

08000834 <SystemInit>:
  * @param  None
  * @retval None
  */

void SystemInit(void)
{
 8000834:	b480      	push	{r7}
 8000836:	af00      	add	r7, sp, #0
  /* FPU settings ------------------------------------------------------------*/
  #if (__FPU_PRESENT == 1) && (__FPU_USED == 1)
    SCB->CPACR |= ((3UL << (10*2))|(3UL << (11*2)));  /* set CP10 and CP11 Full Access */
 8000838:	4b06      	ldr	r3, [pc, #24]	@ (8000854 <SystemInit+0x20>)
 800083a:	f8d3 3088 	ldr.w	r3, [r3, #136]	@ 0x88
 800083e:	4a05      	ldr	r2, [pc, #20]	@ (8000854 <SystemInit+0x20>)
 8000840:	f443 0370 	orr.w	r3, r3, #15728640	@ 0xf00000
 8000844:	f8c2 3088 	str.w	r3, [r2, #136]	@ 0x88

  /* Configure the Vector Table location add offset address ------------------*/
#if defined(USER_VECT_TAB_ADDRESS)
  SCB->VTOR = VECT_TAB_BASE_ADDRESS | VECT_TAB_OFFSET; /* Vector Table Relocation in Internal SRAM */
#endif /* USER_VECT_TAB_ADDRESS */
}
 8000848:	bf00      	nop
 800084a:	46bd      	mov	sp, r7
 800084c:	f85d 7b04 	ldr.w	r7, [sp], #4
 8000850:	4770      	bx	lr
 8000852:	bf00      	nop
 8000854:	e000ed00 	.word	0xe000ed00

08000858 <Reset_Handler>:

    .section	.text.Reset_Handler
	.weak	Reset_Handler
	.type	Reset_Handler, %function
Reset_Handler:
  ldr   r0, =_estack
 8000858:	480d      	ldr	r0, [pc, #52]	@ (8000890 <LoopForever+0x2>)
  mov   sp, r0          /* set stack pointer */
 800085a:	4685      	mov	sp, r0
  
/* Call the clock system initialization function.*/
    bl  SystemInit
 800085c:	f7ff ffea 	bl	8000834 <SystemInit>

/* Copy the data segment initializers from flash to SRAM */
  ldr r0, =_sdata
 8000860:	480c      	ldr	r0, [pc, #48]	@ (8000894 <LoopForever+0x6>)
  ldr r1, =_edata
 8000862:	490d      	ldr	r1, [pc, #52]	@ (8000898 <LoopForever+0xa>)
  ldr r2, =_sidata
 8000864:	4a0d      	ldr	r2, [pc, #52]	@ (800089c <LoopForever+0xe>)
  movs r3, #0
 8000866:	2300      	movs	r3, #0
  b	LoopCopyDataInit
 8000868:	e002      	b.n	8000870 <LoopCopyDataInit>

0800086a <CopyDataInit>:

CopyDataInit:
  ldr r4, [r2, r3]
 800086a:	58d4      	ldr	r4, [r2, r3]
  str r4, [r0, r3]
 800086c:	50c4      	str	r4, [r0, r3]
  adds r3, r3, #4
 800086e:	3304      	adds	r3, #4

08000870 <LoopCopyDataInit>:

LoopCopyDataInit:
  adds r4, r0, r3
 8000870:	18c4      	adds	r4, r0, r3
  cmp r4, r1
 8000872:	428c      	cmp	r4, r1
  bcc CopyDataInit
 8000874:	d3f9      	bcc.n	800086a <CopyDataInit>
  
/* Zero fill the bss segment. */
  ldr r2, =_sbss
 8000876:	4a0a      	ldr	r2, [pc, #40]	@ (80008a0 <LoopForever+0x12>)
  ldr r4, =_ebss
 8000878:	4c0a      	ldr	r4, [pc, #40]	@ (80008a4 <LoopForever+0x16>)
  movs r3, #0
 800087a:	2300      	movs	r3, #0
  b LoopFillZerobss
 800087c:	e001      	b.n	8000882 <LoopFillZerobss>

0800087e <FillZerobss>:

FillZerobss:
  str  r3, [r2]
 800087e:	6013      	str	r3, [r2, #0]
  adds r2, r2, #4
 8000880:	3204      	adds	r2, #4

08000882 <LoopFillZerobss>:

LoopFillZerobss:
  cmp r2, r4
 8000882:	42a2      	cmp	r2, r4
  bcc FillZerobss
 8000884:	d3fb      	bcc.n	800087e <FillZerobss>

/* Call static constructors */
    bl __libc_init_array
 8000886:	f003 f849 	bl	800391c <__libc_init_array>
/* Call the application's entry point.*/
	bl	main
 800088a:	f7ff fcc5 	bl	8000218 <main>

0800088e <LoopForever>:

LoopForever:
    b LoopForever
 800088e:	e7fe      	b.n	800088e <LoopForever>
  ldr   r0, =_estack
 8000890:	2001c000 	.word	0x2001c000
  ldr r0, =_sdata
 8000894:	20000000 	.word	0x20000000
  ldr r1, =_edata
 8000898:	2000000c 	.word	0x2000000c
  ldr r2, =_sidata
 800089c:	08003994 	.word	0x08003994
  ldr r2, =_sbss
 80008a0:	2000000c 	.word	0x2000000c
  ldr r4, =_ebss
 80008a4:	200005b8 	.word	0x200005b8

080008a8 <ADC1_2_IRQHandler>:
 * @retval : None
*/
    .section	.text.Default_Handler,"ax",%progbits
Default_Handler:
Infinite_Loop:
	b	Infinite_Loop
 80008a8:	e7fe      	b.n	80008a8 <ADC1_2_IRQHandler>

080008aa <HAL_Init>:
  *         each 1ms in the SysTick_Handler() interrupt handler.
  *
  * @retval HAL status
  */
HAL_StatusTypeDef HAL_Init(void)
{
 80008aa:	b580      	push	{r7, lr}
 80008ac:	b082      	sub	sp, #8
 80008ae:	af00      	add	r7, sp, #0
  HAL_StatusTypeDef  status = HAL_OK;
 80008b0:	2300      	movs	r3, #0
 80008b2:	71fb      	strb	r3, [r7, #7]
#if (PREFETCH_ENABLE != 0U)
  __HAL_FLASH_PREFETCH_BUFFER_ENABLE();
#endif /* PREFETCH_ENABLE */

  /* Set Interrupt Group Priority */
  HAL_NVIC_SetPriorityGrouping(NVIC_PRIORITYGROUP_4);
 80008b4:	2003      	movs	r0, #3
 80008b6:	f000 f91b 	bl	8000af0 <HAL_NVIC_SetPriorityGrouping>

  /* Use SysTick as time base source and configure 1ms tick (default clock after Reset is HSI) */
  if (HAL_InitTick(TICK_INT_PRIORITY) != HAL_OK)
 80008ba:	2000      	movs	r0, #0
 80008bc:	f000 f80e 	bl	80008dc <HAL_InitTick>
 80008c0:	4603      	mov	r3, r0
 80008c2:	2b00      	cmp	r3, #0
 80008c4:	d002      	beq.n	80008cc <HAL_Init+0x22>
  {
    status = HAL_ERROR;
 80008c6:	2301      	movs	r3, #1
 80008c8:	71fb      	strb	r3, [r7, #7]
 80008ca:	e001      	b.n	80008d0 <HAL_Init+0x26>
  }
  else
  {
    /* Init the low level hardware */
    HAL_MspInit();
 80008cc:	f7ff ff2a 	bl	8000724 <HAL_MspInit>
  }

  /* Return function status */
  return status;
 80008d0:	79fb      	ldrb	r3, [r7, #7]

}
 80008d2:	4618      	mov	r0, r3
 80008d4:	3708      	adds	r7, #8
 80008d6:	46bd      	mov	sp, r7
 80008d8:	bd80      	pop	{r7, pc}
	...

080008dc <HAL_InitTick>:
  *       implementation  in user file.
  * @param TickPriority: Tick interrupt priority.
  * @retval HAL status
  */
__weak HAL_StatusTypeDef HAL_InitTick(uint32_t TickPriority)
{
 80008dc:	b580      	push	{r7, lr}
 80008de:	b084      	sub	sp, #16
 80008e0:	af00      	add	r7, sp, #0
 80008e2:	6078      	str	r0, [r7, #4]
  HAL_StatusTypeDef  status = HAL_OK;
 80008e4:	2300      	movs	r3, #0
 80008e6:	73fb      	strb	r3, [r7, #15]

  if (uwTickFreq != 0U)
 80008e8:	4b16      	ldr	r3, [pc, #88]	@ (8000944 <HAL_InitTick+0x68>)
 80008ea:	681b      	ldr	r3, [r3, #0]
 80008ec:	2b00      	cmp	r3, #0
 80008ee:	d022      	beq.n	8000936 <HAL_InitTick+0x5a>
  {
    /* Configure the SysTick to have interrupt in 1ms time basis*/
    if (HAL_SYSTICK_Config(SystemCoreClock / (1000U / uwTickFreq)) == 0U)
 80008f0:	4b15      	ldr	r3, [pc, #84]	@ (8000948 <HAL_InitTick+0x6c>)
 80008f2:	681a      	ldr	r2, [r3, #0]
 80008f4:	4b13      	ldr	r3, [pc, #76]	@ (8000944 <HAL_InitTick+0x68>)
 80008f6:	681b      	ldr	r3, [r3, #0]
 80008f8:	f44f 717a 	mov.w	r1, #1000	@ 0x3e8
 80008fc:	fbb1 f3f3 	udiv	r3, r1, r3
 8000900:	fbb2 f3f3 	udiv	r3, r2, r3
 8000904:	4618      	mov	r0, r3
 8000906:	f000 f918 	bl	8000b3a <HAL_SYSTICK_Config>
 800090a:	4603      	mov	r3, r0
 800090c:	2b00      	cmp	r3, #0
 800090e:	d10f      	bne.n	8000930 <HAL_InitTick+0x54>
    {
      /* Configure the SysTick IRQ priority */
      if (TickPriority < (1UL << __NVIC_PRIO_BITS))
 8000910:	687b      	ldr	r3, [r7, #4]
 8000912:	2b0f      	cmp	r3, #15
 8000914:	d809      	bhi.n	800092a <HAL_InitTick+0x4e>
      {
        HAL_NVIC_SetPriority(SysTick_IRQn, TickPriority, 0U);
 8000916:	2200      	movs	r2, #0
 8000918:	6879      	ldr	r1, [r7, #4]
 800091a:	f04f 30ff 	mov.w	r0, #4294967295	@ 0xffffffff
 800091e:	f000 f8f2 	bl	8000b06 <HAL_NVIC_SetPriority>
        uwTickPrio = TickPriority;
 8000922:	4a0a      	ldr	r2, [pc, #40]	@ (800094c <HAL_InitTick+0x70>)
 8000924:	687b      	ldr	r3, [r7, #4]
 8000926:	6013      	str	r3, [r2, #0]
 8000928:	e007      	b.n	800093a <HAL_InitTick+0x5e>
      }
      else
      {
        status = HAL_ERROR;
 800092a:	2301      	movs	r3, #1
 800092c:	73fb      	strb	r3, [r7, #15]
 800092e:	e004      	b.n	800093a <HAL_InitTick+0x5e>
      }
    }
    else
    {
      status = HAL_ERROR;
 8000930:	2301      	movs	r3, #1
 8000932:	73fb      	strb	r3, [r7, #15]
 8000934:	e001      	b.n	800093a <HAL_InitTick+0x5e>
    }
  }
  else
  {
    status = HAL_ERROR;
 8000936:	2301      	movs	r3, #1
 8000938:	73fb      	strb	r3, [r7, #15]
  }

  /* Return function status */
  return status;
 800093a:	7bfb      	ldrb	r3, [r7, #15]
}
 800093c:	4618      	mov	r0, r3
 800093e:	3710      	adds	r7, #16
 8000940:	46bd      	mov	sp, r7
 8000942:	bd80      	pop	{r7, pc}
 8000944:	20000008 	.word	0x20000008
 8000948:	20000000 	.word	0x20000000
 800094c:	20000004 	.word	0x20000004

08000950 <HAL_IncTick>:
  * @note This function is declared as __weak to be overwritten in case of other
  *      implementations in user file.
  * @retval None
  */
__weak void HAL_IncTick(void)
{
 8000950:	b480      	push	{r7}
 8000952:	af00      	add	r7, sp, #0
  uwTick += uwTickFreq;
 8000954:	4b05      	ldr	r3, [pc, #20]	@ (800096c <HAL_IncTick+0x1c>)
 8000956:	681a      	ldr	r2, [r3, #0]
 8000958:	4b05      	ldr	r3, [pc, #20]	@ (8000970 <HAL_IncTick+0x20>)
 800095a:	681b      	ldr	r3, [r3, #0]
 800095c:	4413      	add	r3, r2
 800095e:	4a03      	ldr	r2, [pc, #12]	@ (800096c <HAL_IncTick+0x1c>)
 8000960:	6013      	str	r3, [r2, #0]
}
 8000962:	bf00      	nop
 8000964:	46bd      	mov	sp, r7
 8000966:	f85d 7b04 	ldr.w	r7, [sp], #4
 800096a:	4770      	bx	lr
 800096c:	200005b4 	.word	0x200005b4
 8000970:	20000008 	.word	0x20000008

08000974 <HAL_GetTick>:
  * @note This function is declared as __weak to be overwritten in case of other
  *       implementations in user file.
  * @retval tick value
  */
__weak uint32_t HAL_GetTick(void)
{
 8000974:	b480      	push	{r7}
 8000976:	af00      	add	r7, sp, #0
  return uwTick;
 8000978:	4b03      	ldr	r3, [pc, #12]	@ (8000988 <HAL_GetTick+0x14>)
 800097a:	681b      	ldr	r3, [r3, #0]
}
 800097c:	4618      	mov	r0, r3
 800097e:	46bd      	mov	sp, r7
 8000980:	f85d 7b04 	ldr.w	r7, [sp], #4
 8000984:	4770      	bx	lr
 8000986:	bf00      	nop
 8000988:	200005b4 	.word	0x200005b4

0800098c <__NVIC_SetPriorityGrouping>:
           In case of a conflict between priority grouping and available
           priority bits (__NVIC_PRIO_BITS), the smallest possible priority group is set.
  \param [in]      PriorityGroup  Priority grouping field.
 */
__STATIC_INLINE void __NVIC_SetPriorityGrouping(uint32_t PriorityGroup)
{
 800098c:	b480      	push	{r7}
 800098e:	b085      	sub	sp, #20
 8000990:	af00      	add	r7, sp, #0
 8000992:	6078      	str	r0, [r7, #4]
  uint32_t reg_value;
  uint32_t PriorityGroupTmp = (PriorityGroup & (uint32_t)0x07UL);             /* only values 0..7 are used          */
 8000994:	687b      	ldr	r3, [r7, #4]
 8000996:	f003 0307 	and.w	r3, r3, #7
 800099a:	60fb      	str	r3, [r7, #12]

  reg_value  =  SCB->AIRCR;                                                   /* read old register configuration    */
 800099c:	4b0c      	ldr	r3, [pc, #48]	@ (80009d0 <__NVIC_SetPriorityGrouping+0x44>)
 800099e:	68db      	ldr	r3, [r3, #12]
 80009a0:	60bb      	str	r3, [r7, #8]
  reg_value &= ~((uint32_t)(SCB_AIRCR_VECTKEY_Msk | SCB_AIRCR_PRIGROUP_Msk)); /* clear bits to change               */
 80009a2:	68ba      	ldr	r2, [r7, #8]
 80009a4:	f64f 03ff 	movw	r3, #63743	@ 0xf8ff
 80009a8:	4013      	ands	r3, r2
 80009aa:	60bb      	str	r3, [r7, #8]
  reg_value  =  (reg_value                                   |
                ((uint32_t)0x5FAUL << SCB_AIRCR_VECTKEY_Pos) |
                (PriorityGroupTmp << SCB_AIRCR_PRIGROUP_Pos)  );              /* Insert write key and priority group */
 80009ac:	68fb      	ldr	r3, [r7, #12]
 80009ae:	021a      	lsls	r2, r3, #8
                ((uint32_t)0x5FAUL << SCB_AIRCR_VECTKEY_Pos) |
 80009b0:	68bb      	ldr	r3, [r7, #8]
 80009b2:	4313      	orrs	r3, r2
  reg_value  =  (reg_value                                   |
 80009b4:	f043 63bf 	orr.w	r3, r3, #100139008	@ 0x5f80000
 80009b8:	f443 3300 	orr.w	r3, r3, #131072	@ 0x20000
 80009bc:	60bb      	str	r3, [r7, #8]
  SCB->AIRCR =  reg_value;
 80009be:	4a04      	ldr	r2, [pc, #16]	@ (80009d0 <__NVIC_SetPriorityGrouping+0x44>)
 80009c0:	68bb      	ldr	r3, [r7, #8]
 80009c2:	60d3      	str	r3, [r2, #12]
}
 80009c4:	bf00      	nop
 80009c6:	3714      	adds	r7, #20
 80009c8:	46bd      	mov	sp, r7
 80009ca:	f85d 7b04 	ldr.w	r7, [sp], #4
 80009ce:	4770      	bx	lr
 80009d0:	e000ed00 	.word	0xe000ed00

080009d4 <__NVIC_GetPriorityGrouping>:
  \brief   Get Priority Grouping
  \details Reads the priority grouping field from the NVIC Interrupt Controller.
  \return                Priority grouping field (SCB->AIRCR [10:8] PRIGROUP field).
 */
__STATIC_INLINE uint32_t __NVIC_GetPriorityGrouping(void)
{
 80009d4:	b480      	push	{r7}
 80009d6:	af00      	add	r7, sp, #0
  return ((uint32_t)((SCB->AIRCR & SCB_AIRCR_PRIGROUP_Msk) >> SCB_AIRCR_PRIGROUP_Pos));
 80009d8:	4b04      	ldr	r3, [pc, #16]	@ (80009ec <__NVIC_GetPriorityGrouping+0x18>)
 80009da:	68db      	ldr	r3, [r3, #12]
 80009dc:	0a1b      	lsrs	r3, r3, #8
 80009de:	f003 0307 	and.w	r3, r3, #7
}
 80009e2:	4618      	mov	r0, r3
 80009e4:	46bd      	mov	sp, r7
 80009e6:	f85d 7b04 	ldr.w	r7, [sp], #4
 80009ea:	4770      	bx	lr
 80009ec:	e000ed00 	.word	0xe000ed00

080009f0 <__NVIC_SetPriority>:
  \param [in]      IRQn  Interrupt number.
  \param [in]  priority  Priority to set.
  \note    The priority cannot be set for every processor exception.
 */
__STATIC_INLINE void __NVIC_SetPriority(IRQn_Type IRQn, uint32_t priority)
{
 80009f0:	b480      	push	{r7}
 80009f2:	b083      	sub	sp, #12
 80009f4:	af00      	add	r7, sp, #0
 80009f6:	4603      	mov	r3, r0
 80009f8:	6039      	str	r1, [r7, #0]
 80009fa:	71fb      	strb	r3, [r7, #7]
  if ((int32_t)(IRQn) >= 0)
 80009fc:	f997 3007 	ldrsb.w	r3, [r7, #7]
 8000a00:	2b00      	cmp	r3, #0
 8000a02:	db0a      	blt.n	8000a1a <__NVIC_SetPriority+0x2a>
  {
    NVIC->IP[((uint32_t)IRQn)]               = (uint8_t)((priority << (8U - __NVIC_PRIO_BITS)) & (uint32_t)0xFFUL);
 8000a04:	683b      	ldr	r3, [r7, #0]
 8000a06:	b2da      	uxtb	r2, r3
 8000a08:	490c      	ldr	r1, [pc, #48]	@ (8000a3c <__NVIC_SetPriority+0x4c>)
 8000a0a:	f997 3007 	ldrsb.w	r3, [r7, #7]
 8000a0e:	0112      	lsls	r2, r2, #4
 8000a10:	b2d2      	uxtb	r2, r2
 8000a12:	440b      	add	r3, r1
 8000a14:	f883 2300 	strb.w	r2, [r3, #768]	@ 0x300
  }
  else
  {
    SCB->SHP[(((uint32_t)IRQn) & 0xFUL)-4UL] = (uint8_t)((priority << (8U - __NVIC_PRIO_BITS)) & (uint32_t)0xFFUL);
  }
}
 8000a18:	e00a      	b.n	8000a30 <__NVIC_SetPriority+0x40>
    SCB->SHP[(((uint32_t)IRQn) & 0xFUL)-4UL] = (uint8_t)((priority << (8U - __NVIC_PRIO_BITS)) & (uint32_t)0xFFUL);
 8000a1a:	683b      	ldr	r3, [r7, #0]
 8000a1c:	b2da      	uxtb	r2, r3
 8000a1e:	4908      	ldr	r1, [pc, #32]	@ (8000a40 <__NVIC_SetPriority+0x50>)
 8000a20:	79fb      	ldrb	r3, [r7, #7]
 8000a22:	f003 030f 	and.w	r3, r3, #15
 8000a26:	3b04      	subs	r3, #4
 8000a28:	0112      	lsls	r2, r2, #4
 8000a2a:	b2d2      	uxtb	r2, r2
 8000a2c:	440b      	add	r3, r1
 8000a2e:	761a      	strb	r2, [r3, #24]
}
 8000a30:	bf00      	nop
 8000a32:	370c      	adds	r7, #12
 8000a34:	46bd      	mov	sp, r7
 8000a36:	f85d 7b04 	ldr.w	r7, [sp], #4
 8000a3a:	4770      	bx	lr
 8000a3c:	e000e100 	.word	0xe000e100
 8000a40:	e000ed00 	.word	0xe000ed00

08000a44 <NVIC_EncodePriority>:
  \param [in]   PreemptPriority  Preemptive priority value (starting from 0).
  \param [in]       SubPriority  Subpriority value (starting from 0).
  \return                        Encoded priority. Value can be used in the function \ref NVIC_SetPriority().
 */
__STATIC_INLINE uint32_t NVIC_EncodePriority (uint32_t PriorityGroup, uint32_t PreemptPriority, uint32_t SubPriority)
{
 8000a44:	b480      	push	{r7}
 8000a46:	b089      	sub	sp, #36	@ 0x24
 8000a48:	af00      	add	r7, sp, #0
 8000a4a:	60f8      	str	r0, [r7, #12]
 8000a4c:	60b9      	str	r1, [r7, #8]
 8000a4e:	607a      	str	r2, [r7, #4]
  uint32_t PriorityGroupTmp = (PriorityGroup & (uint32_t)0x07UL);   /* only values 0..7 are used          */
 8000a50:	68fb      	ldr	r3, [r7, #12]
 8000a52:	f003 0307 	and.w	r3, r3, #7
 8000a56:	61fb      	str	r3, [r7, #28]
  uint32_t PreemptPriorityBits;
  uint32_t SubPriorityBits;

  PreemptPriorityBits = ((7UL - PriorityGroupTmp) > (uint32_t)(__NVIC_PRIO_BITS)) ? (uint32_t)(__NVIC_PRIO_BITS) : (uint32_t)(7UL - PriorityGroupTmp);
 8000a58:	69fb      	ldr	r3, [r7, #28]
 8000a5a:	f1c3 0307 	rsb	r3, r3, #7
 8000a5e:	2b04      	cmp	r3, #4
 8000a60:	bf28      	it	cs
 8000a62:	2304      	movcs	r3, #4
 8000a64:	61bb      	str	r3, [r7, #24]
  SubPriorityBits     = ((PriorityGroupTmp + (uint32_t)(__NVIC_PRIO_BITS)) < (uint32_t)7UL) ? (uint32_t)0UL : (uint32_t)((PriorityGroupTmp - 7UL) + (uint32_t)(__NVIC_PRIO_BITS));
 8000a66:	69fb      	ldr	r3, [r7, #28]
 8000a68:	3304      	adds	r3, #4
 8000a6a:	2b06      	cmp	r3, #6
 8000a6c:	d902      	bls.n	8000a74 <NVIC_EncodePriority+0x30>
 8000a6e:	69fb      	ldr	r3, [r7, #28]
 8000a70:	3b03      	subs	r3, #3
 8000a72:	e000      	b.n	8000a76 <NVIC_EncodePriority+0x32>
 8000a74:	2300      	movs	r3, #0
 8000a76:	617b      	str	r3, [r7, #20]

  return (
           ((PreemptPriority & (uint32_t)((1UL << (PreemptPriorityBits)) - 1UL)) << SubPriorityBits) |
 8000a78:	f04f 32ff 	mov.w	r2, #4294967295	@ 0xffffffff
 8000a7c:	69bb      	ldr	r3, [r7, #24]
 8000a7e:	fa02 f303 	lsl.w	r3, r2, r3
 8000a82:	43da      	mvns	r2, r3
 8000a84:	68bb      	ldr	r3, [r7, #8]
 8000a86:	401a      	ands	r2, r3
 8000a88:	697b      	ldr	r3, [r7, #20]
 8000a8a:	409a      	lsls	r2, r3
           ((SubPriority     & (uint32_t)((1UL << (SubPriorityBits    )) - 1UL)))
 8000a8c:	f04f 31ff 	mov.w	r1, #4294967295	@ 0xffffffff
 8000a90:	697b      	ldr	r3, [r7, #20]
 8000a92:	fa01 f303 	lsl.w	r3, r1, r3
 8000a96:	43d9      	mvns	r1, r3
 8000a98:	687b      	ldr	r3, [r7, #4]
 8000a9a:	400b      	ands	r3, r1
           ((PreemptPriority & (uint32_t)((1UL << (PreemptPriorityBits)) - 1UL)) << SubPriorityBits) |
 8000a9c:	4313      	orrs	r3, r2
         );
}
 8000a9e:	4618      	mov	r0, r3
 8000aa0:	3724      	adds	r7, #36	@ 0x24
 8000aa2:	46bd      	mov	sp, r7
 8000aa4:	f85d 7b04 	ldr.w	r7, [sp], #4
 8000aa8:	4770      	bx	lr
	...

08000aac <SysTick_Config>:
  \note    When the variable <b>__Vendor_SysTickConfig</b> is set to 1, then the
           function <b>SysTick_Config</b> is not included. In this case, the file <b><i>device</i>.h</b>
           must contain a vendor-specific implementation of this function.
 */
__STATIC_INLINE uint32_t SysTick_Config(uint32_t ticks)
{
 8000aac:	b580      	push	{r7, lr}
 8000aae:	b082      	sub	sp, #8
 8000ab0:	af00      	add	r7, sp, #0
 8000ab2:	6078      	str	r0, [r7, #4]
  if ((ticks - 1UL) > SysTick_LOAD_RELOAD_Msk)
 8000ab4:	687b      	ldr	r3, [r7, #4]
 8000ab6:	3b01      	subs	r3, #1
 8000ab8:	f1b3 7f80 	cmp.w	r3, #16777216	@ 0x1000000
 8000abc:	d301      	bcc.n	8000ac2 <SysTick_Config+0x16>
  {
    return (1UL);                                                   /* Reload value impossible */
 8000abe:	2301      	movs	r3, #1
 8000ac0:	e00f      	b.n	8000ae2 <SysTick_Config+0x36>
  }

  SysTick->LOAD  = (uint32_t)(ticks - 1UL);                         /* set reload register */
 8000ac2:	4a0a      	ldr	r2, [pc, #40]	@ (8000aec <SysTick_Config+0x40>)
 8000ac4:	687b      	ldr	r3, [r7, #4]
 8000ac6:	3b01      	subs	r3, #1
 8000ac8:	6053      	str	r3, [r2, #4]
  NVIC_SetPriority (SysTick_IRQn, (1UL << __NVIC_PRIO_BITS) - 1UL); /* set Priority for Systick Interrupt */
 8000aca:	210f      	movs	r1, #15
 8000acc:	f04f 30ff 	mov.w	r0, #4294967295	@ 0xffffffff
 8000ad0:	f7ff ff8e 	bl	80009f0 <__NVIC_SetPriority>
  SysTick->VAL   = 0UL;                                             /* Load the SysTick Counter Value */
 8000ad4:	4b05      	ldr	r3, [pc, #20]	@ (8000aec <SysTick_Config+0x40>)
 8000ad6:	2200      	movs	r2, #0
 8000ad8:	609a      	str	r2, [r3, #8]
  SysTick->CTRL  = SysTick_CTRL_CLKSOURCE_Msk |
 8000ada:	4b04      	ldr	r3, [pc, #16]	@ (8000aec <SysTick_Config+0x40>)
 8000adc:	2207      	movs	r2, #7
 8000ade:	601a      	str	r2, [r3, #0]
                   SysTick_CTRL_TICKINT_Msk   |
                   SysTick_CTRL_ENABLE_Msk;                         /* Enable SysTick IRQ and SysTick Timer */
  return (0UL);                                                     /* Function successful */
 8000ae0:	2300      	movs	r3, #0
}
 8000ae2:	4618      	mov	r0, r3
 8000ae4:	3708      	adds	r7, #8
 8000ae6:	46bd      	mov	sp, r7
 8000ae8:	bd80      	pop	{r7, pc}
 8000aea:	bf00      	nop
 8000aec:	e000e010 	.word	0xe000e010

08000af0 <HAL_NVIC_SetPriorityGrouping>:
  * @note   When the NVIC_PriorityGroup_0 is selected, IRQ pre-emption is no more possible.
  *         The pending IRQ priority will be managed only by the subpriority.
  * @retval None
  */
void HAL_NVIC_SetPriorityGrouping(uint32_t PriorityGroup)
{
 8000af0:	b580      	push	{r7, lr}
 8000af2:	b082      	sub	sp, #8
 8000af4:	af00      	add	r7, sp, #0
 8000af6:	6078      	str	r0, [r7, #4]
  /* Check the parameters */
  assert_param(IS_NVIC_PRIORITY_GROUP(PriorityGroup));

  /* Set the PRIGROUP[10:8] bits according to the PriorityGroup parameter value */
  NVIC_SetPriorityGrouping(PriorityGroup);
 8000af8:	6878      	ldr	r0, [r7, #4]
 8000afa:	f7ff ff47 	bl	800098c <__NVIC_SetPriorityGrouping>
}
 8000afe:	bf00      	nop
 8000b00:	3708      	adds	r7, #8
 8000b02:	46bd      	mov	sp, r7
 8000b04:	bd80      	pop	{r7, pc}

08000b06 <HAL_NVIC_SetPriority>:
  *         This parameter can be a value between 0 and 15
  *         A lower priority value indicates a higher priority.
  * @retval None
  */
void HAL_NVIC_SetPriority(IRQn_Type IRQn, uint32_t PreemptPriority, uint32_t SubPriority)
{
 8000b06:	b580      	push	{r7, lr}
 8000b08:	b086      	sub	sp, #24
 8000b0a:	af00      	add	r7, sp, #0
 8000b0c:	4603      	mov	r3, r0
 8000b0e:	60b9      	str	r1, [r7, #8]
 8000b10:	607a      	str	r2, [r7, #4]
 8000b12:	73fb      	strb	r3, [r7, #15]

  /* Check the parameters */
  assert_param(IS_NVIC_SUB_PRIORITY(SubPriority));
  assert_param(IS_NVIC_PREEMPTION_PRIORITY(PreemptPriority));

  prioritygroup = NVIC_GetPriorityGrouping();
 8000b14:	f7ff ff5e 	bl	80009d4 <__NVIC_GetPriorityGrouping>
 8000b18:	6178      	str	r0, [r7, #20]

  NVIC_SetPriority(IRQn, NVIC_EncodePriority(prioritygroup, PreemptPriority, SubPriority));
 8000b1a:	687a      	ldr	r2, [r7, #4]
 8000b1c:	68b9      	ldr	r1, [r7, #8]
 8000b1e:	6978      	ldr	r0, [r7, #20]
 8000b20:	f7ff ff90 	bl	8000a44 <NVIC_EncodePriority>
 8000b24:	4602      	mov	r2, r0
 8000b26:	f997 300f 	ldrsb.w	r3, [r7, #15]
 8000b2a:	4611      	mov	r1, r2
 8000b2c:	4618      	mov	r0, r3
 8000b2e:	f7ff ff5f 	bl	80009f0 <__NVIC_SetPriority>
}
 8000b32:	bf00      	nop
 8000b34:	3718      	adds	r7, #24
 8000b36:	46bd      	mov	sp, r7
 8000b38:	bd80      	pop	{r7, pc}

08000b3a <HAL_SYSTICK_Config>:
  * @param  TicksNumb: Specifies the ticks Number of ticks between two interrupts.
  * @retval status:  - 0  Function succeeded.
  *                  - 1  Function failed.
  */
uint32_t HAL_SYSTICK_Config(uint32_t TicksNumb)
{
 8000b3a:	b580      	push	{r7, lr}
 8000b3c:	b082      	sub	sp, #8
 8000b3e:	af00      	add	r7, sp, #0
 8000b40:	6078      	str	r0, [r7, #4]
   return SysTick_Config(TicksNumb);
 8000b42:	6878      	ldr	r0, [r7, #4]
 8000b44:	f7ff ffb2 	bl	8000aac <SysTick_Config>
 8000b48:	4603      	mov	r3, r0
}
 8000b4a:	4618      	mov	r0, r3
 8000b4c:	3708      	adds	r7, #8
 8000b4e:	46bd      	mov	sp, r7
 8000b50:	bd80      	pop	{r7, pc}

08000b52 <HAL_DMA_Abort>:
  * @param  hdma pointer to a DMA_HandleTypeDef structure that contains
  *               the configuration information for the specified DMA Channel.
    * @retval HAL status
  */
HAL_StatusTypeDef HAL_DMA_Abort(DMA_HandleTypeDef *hdma)
{
 8000b52:	b480      	push	{r7}
 8000b54:	b085      	sub	sp, #20
 8000b56:	af00      	add	r7, sp, #0
 8000b58:	6078      	str	r0, [r7, #4]
  HAL_StatusTypeDef status = HAL_OK;
 8000b5a:	2300      	movs	r3, #0
 8000b5c:	73fb      	strb	r3, [r7, #15]

  /* Check the DMA peripheral handle parameter */
  if (hdma == NULL)
 8000b5e:	687b      	ldr	r3, [r7, #4]
 8000b60:	2b00      	cmp	r3, #0
 8000b62:	d101      	bne.n	8000b68 <HAL_DMA_Abort+0x16>
  {
    return HAL_ERROR;
 8000b64:	2301      	movs	r3, #1
 8000b66:	e04c      	b.n	8000c02 <HAL_DMA_Abort+0xb0>
  }

  if (hdma->State != HAL_DMA_STATE_BUSY)
 8000b68:	687b      	ldr	r3, [r7, #4]
 8000b6a:	f893 3025 	ldrb.w	r3, [r3, #37]	@ 0x25
 8000b6e:	b2db      	uxtb	r3, r3
 8000b70:	2b02      	cmp	r3, #2
 8000b72:	d005      	beq.n	8000b80 <HAL_DMA_Abort+0x2e>
  {
    /* no transfer ongoing */
    hdma->ErrorCode = HAL_DMA_ERROR_NO_XFER;
 8000b74:	687b      	ldr	r3, [r7, #4]
 8000b76:	2204      	movs	r2, #4
 8000b78:	63da      	str	r2, [r3, #60]	@ 0x3c

    status = HAL_ERROR;
 8000b7a:	2301      	movs	r3, #1
 8000b7c:	73fb      	strb	r3, [r7, #15]
 8000b7e:	e037      	b.n	8000bf0 <HAL_DMA_Abort+0x9e>
  }
  else
  {
    /* Disable the channel */
    __HAL_DMA_DISABLE(hdma);
 8000b80:	687b      	ldr	r3, [r7, #4]
 8000b82:	681b      	ldr	r3, [r3, #0]
 8000b84:	681a      	ldr	r2, [r3, #0]
 8000b86:	687b      	ldr	r3, [r7, #4]
 8000b88:	681b      	ldr	r3, [r3, #0]
 8000b8a:	f022 0201 	bic.w	r2, r2, #1
 8000b8e:	601a      	str	r2, [r3, #0]

    /* Disable DMA IT */
    __HAL_DMA_DISABLE_IT(hdma, (DMA_IT_TC | DMA_IT_HT | DMA_IT_TE));
 8000b90:	687b      	ldr	r3, [r7, #4]
 8000b92:	681b      	ldr	r3, [r3, #0]
 8000b94:	681a      	ldr	r2, [r3, #0]
 8000b96:	687b      	ldr	r3, [r7, #4]
 8000b98:	681b      	ldr	r3, [r3, #0]
 8000b9a:	f022 020e 	bic.w	r2, r2, #14
 8000b9e:	601a      	str	r2, [r3, #0]

    /* disable the DMAMUX sync overrun IT*/
    hdma->DMAmuxChannel->CCR &= ~DMAMUX_CxCR_SOIE;
 8000ba0:	687b      	ldr	r3, [r7, #4]
 8000ba2:	6c9b      	ldr	r3, [r3, #72]	@ 0x48
 8000ba4:	681a      	ldr	r2, [r3, #0]
 8000ba6:	687b      	ldr	r3, [r7, #4]
 8000ba8:	6c9b      	ldr	r3, [r3, #72]	@ 0x48
 8000baa:	f422 7280 	bic.w	r2, r2, #256	@ 0x100
 8000bae:	601a      	str	r2, [r3, #0]

    /* Clear all flags */
    hdma->DmaBaseAddress->IFCR = (DMA_ISR_GIF1 << (hdma->ChannelIndex & 0x1FU));
 8000bb0:	687b      	ldr	r3, [r7, #4]
 8000bb2:	6c5b      	ldr	r3, [r3, #68]	@ 0x44
 8000bb4:	f003 021f 	and.w	r2, r3, #31
 8000bb8:	687b      	ldr	r3, [r7, #4]
 8000bba:	6c1b      	ldr	r3, [r3, #64]	@ 0x40
 8000bbc:	2101      	movs	r1, #1
 8000bbe:	fa01 f202 	lsl.w	r2, r1, r2
 8000bc2:	605a      	str	r2, [r3, #4]

    /* Clear the DMAMUX synchro overrun flag */
    hdma->DMAmuxChannelStatus->CFR = hdma->DMAmuxChannelStatusMask;
 8000bc4:	687b      	ldr	r3, [r7, #4]
 8000bc6:	6cdb      	ldr	r3, [r3, #76]	@ 0x4c
 8000bc8:	687a      	ldr	r2, [r7, #4]
 8000bca:	6d12      	ldr	r2, [r2, #80]	@ 0x50
 8000bcc:	605a      	str	r2, [r3, #4]

    if (hdma->DMAmuxRequestGen != 0U)
 8000bce:	687b      	ldr	r3, [r7, #4]
 8000bd0:	6d5b      	ldr	r3, [r3, #84]	@ 0x54
 8000bd2:	2b00      	cmp	r3, #0
 8000bd4:	d00c      	beq.n	8000bf0 <HAL_DMA_Abort+0x9e>
    {
      /* if using DMAMUX request generator, disable the DMAMUX request generator overrun IT*/
      /* disable the request gen overrun IT*/
      hdma->DMAmuxRequestGen->RGCR &= ~DMAMUX_RGxCR_OIE;
 8000bd6:	687b      	ldr	r3, [r7, #4]
 8000bd8:	6d5b      	ldr	r3, [r3, #84]	@ 0x54
 8000bda:	681a      	ldr	r2, [r3, #0]
 8000bdc:	687b      	ldr	r3, [r7, #4]
 8000bde:	6d5b      	ldr	r3, [r3, #84]	@ 0x54
 8000be0:	f422 7280 	bic.w	r2, r2, #256	@ 0x100
 8000be4:	601a      	str	r2, [r3, #0]

      /* Clear the DMAMUX request generator overrun flag */
      hdma->DMAmuxRequestGenStatus->RGCFR = hdma->DMAmuxRequestGenStatusMask;
 8000be6:	687b      	ldr	r3, [r7, #4]
 8000be8:	6d9b      	ldr	r3, [r3, #88]	@ 0x58
 8000bea:	687a      	ldr	r2, [r7, #4]
 8000bec:	6dd2      	ldr	r2, [r2, #92]	@ 0x5c
 8000bee:	605a      	str	r2, [r3, #4]
    }
  }
  /* Change the DMA state */
  hdma->State = HAL_DMA_STATE_READY;
 8000bf0:	687b      	ldr	r3, [r7, #4]
 8000bf2:	2201      	movs	r2, #1
 8000bf4:	f883 2025 	strb.w	r2, [r3, #37]	@ 0x25

  /* Process Unlocked */
  __HAL_UNLOCK(hdma);
 8000bf8:	687b      	ldr	r3, [r7, #4]
 8000bfa:	2200      	movs	r2, #0
 8000bfc:	f883 2024 	strb.w	r2, [r3, #36]	@ 0x24

  return status;
 8000c00:	7bfb      	ldrb	r3, [r7, #15]
}
 8000c02:	4618      	mov	r0, r3
 8000c04:	3714      	adds	r7, #20
 8000c06:	46bd      	mov	sp, r7
 8000c08:	f85d 7b04 	ldr.w	r7, [sp], #4
 8000c0c:	4770      	bx	lr

08000c0e <HAL_DMA_Abort_IT>:
  * @param  hdma pointer to a DMA_HandleTypeDef structure that contains
  *              the configuration information for the specified DMA Channel.
  * @retval HAL status
  */
HAL_StatusTypeDef HAL_DMA_Abort_IT(DMA_HandleTypeDef *hdma)
{
 8000c0e:	b580      	push	{r7, lr}
 8000c10:	b084      	sub	sp, #16
 8000c12:	af00      	add	r7, sp, #0
 8000c14:	6078      	str	r0, [r7, #4]
  HAL_StatusTypeDef status = HAL_OK;
 8000c16:	2300      	movs	r3, #0
 8000c18:	73fb      	strb	r3, [r7, #15]

  if (HAL_DMA_STATE_BUSY != hdma->State)
 8000c1a:	687b      	ldr	r3, [r7, #4]
 8000c1c:	f893 3025 	ldrb.w	r3, [r3, #37]	@ 0x25
 8000c20:	b2db      	uxtb	r3, r3
 8000c22:	2b02      	cmp	r3, #2
 8000c24:	d00d      	beq.n	8000c42 <HAL_DMA_Abort_IT+0x34>
  {
    /* no transfer ongoing */
    hdma->ErrorCode = HAL_DMA_ERROR_NO_XFER;
 8000c26:	687b      	ldr	r3, [r7, #4]
 8000c28:	2204      	movs	r2, #4
 8000c2a:	63da      	str	r2, [r3, #60]	@ 0x3c

    /* Change the DMA state */
    hdma->State = HAL_DMA_STATE_READY;
 8000c2c:	687b      	ldr	r3, [r7, #4]
 8000c2e:	2201      	movs	r2, #1
 8000c30:	f883 2025 	strb.w	r2, [r3, #37]	@ 0x25

    /* Process Unlocked */
    __HAL_UNLOCK(hdma);
 8000c34:	687b      	ldr	r3, [r7, #4]
 8000c36:	2200      	movs	r2, #0
 8000c38:	f883 2024 	strb.w	r2, [r3, #36]	@ 0x24

    status = HAL_ERROR;
 8000c3c:	2301      	movs	r3, #1
 8000c3e:	73fb      	strb	r3, [r7, #15]
 8000c40:	e047      	b.n	8000cd2 <HAL_DMA_Abort_IT+0xc4>
  }
  else
  {

    /* Disable the channel */
    __HAL_DMA_DISABLE(hdma);
 8000c42:	687b      	ldr	r3, [r7, #4]
 8000c44:	681b      	ldr	r3, [r3, #0]
 8000c46:	681a      	ldr	r2, [r3, #0]
 8000c48:	687b      	ldr	r3, [r7, #4]
 8000c4a:	681b      	ldr	r3, [r3, #0]
 8000c4c:	f022 0201 	bic.w	r2, r2, #1
 8000c50:	601a      	str	r2, [r3, #0]

    /* Disable DMA IT */
    __HAL_DMA_DISABLE_IT(hdma, (DMA_IT_TC | DMA_IT_HT | DMA_IT_TE));
 8000c52:	687b      	ldr	r3, [r7, #4]
 8000c54:	681b      	ldr	r3, [r3, #0]
 8000c56:	681a      	ldr	r2, [r3, #0]
 8000c58:	687b      	ldr	r3, [r7, #4]
 8000c5a:	681b      	ldr	r3, [r3, #0]
 8000c5c:	f022 020e 	bic.w	r2, r2, #14
 8000c60:	601a      	str	r2, [r3, #0]

    /* disable the DMAMUX sync overrun IT*/
    hdma->DMAmuxChannel->CCR &= ~DMAMUX_CxCR_SOIE;
 8000c62:	687b      	ldr	r3, [r7, #4]
 8000c64:	6c9b      	ldr	r3, [r3, #72]	@ 0x48
 8000c66:	681a      	ldr	r2, [r3, #0]
 8000c68:	687b      	ldr	r3, [r7, #4]
 8000c6a:	6c9b      	ldr	r3, [r3, #72]	@ 0x48
 8000c6c:	f422 7280 	bic.w	r2, r2, #256	@ 0x100
 8000c70:	601a      	str	r2, [r3, #0]

    /* Clear all flags */
    hdma->DmaBaseAddress->IFCR = (DMA_ISR_GIF1 << (hdma->ChannelIndex & 0x1FU));
 8000c72:	687b      	ldr	r3, [r7, #4]
 8000c74:	6c5b      	ldr	r3, [r3, #68]	@ 0x44
 8000c76:	f003 021f 	and.w	r2, r3, #31
 8000c7a:	687b      	ldr	r3, [r7, #4]
 8000c7c:	6c1b      	ldr	r3, [r3, #64]	@ 0x40
 8000c7e:	2101      	movs	r1, #1
 8000c80:	fa01 f202 	lsl.w	r2, r1, r2
 8000c84:	605a      	str	r2, [r3, #4]

    /* Clear the DMAMUX synchro overrun flag */
    hdma->DMAmuxChannelStatus->CFR = hdma->DMAmuxChannelStatusMask;
 8000c86:	687b      	ldr	r3, [r7, #4]
 8000c88:	6cdb      	ldr	r3, [r3, #76]	@ 0x4c
 8000c8a:	687a      	ldr	r2, [r7, #4]
 8000c8c:	6d12      	ldr	r2, [r2, #80]	@ 0x50
 8000c8e:	605a      	str	r2, [r3, #4]

    if (hdma->DMAmuxRequestGen != 0U)
 8000c90:	687b      	ldr	r3, [r7, #4]
 8000c92:	6d5b      	ldr	r3, [r3, #84]	@ 0x54
 8000c94:	2b00      	cmp	r3, #0
 8000c96:	d00c      	beq.n	8000cb2 <HAL_DMA_Abort_IT+0xa4>
    {
      /* if using DMAMUX request generator, disable the DMAMUX request generator overrun IT*/
      /* disable the request gen overrun IT*/
      hdma->DMAmuxRequestGen->RGCR &= ~DMAMUX_RGxCR_OIE;
 8000c98:	687b      	ldr	r3, [r7, #4]
 8000c9a:	6d5b      	ldr	r3, [r3, #84]	@ 0x54
 8000c9c:	681a      	ldr	r2, [r3, #0]
 8000c9e:	687b      	ldr	r3, [r7, #4]
 8000ca0:	6d5b      	ldr	r3, [r3, #84]	@ 0x54
 8000ca2:	f422 7280 	bic.w	r2, r2, #256	@ 0x100
 8000ca6:	601a      	str	r2, [r3, #0]

      /* Clear the DMAMUX request generator overrun flag */
      hdma->DMAmuxRequestGenStatus->RGCFR = hdma->DMAmuxRequestGenStatusMask;
 8000ca8:	687b      	ldr	r3, [r7, #4]
 8000caa:	6d9b      	ldr	r3, [r3, #88]	@ 0x58
 8000cac:	687a      	ldr	r2, [r7, #4]
 8000cae:	6dd2      	ldr	r2, [r2, #92]	@ 0x5c
 8000cb0:	605a      	str	r2, [r3, #4]
    }

    /* Change the DMA state */
    hdma->State = HAL_DMA_STATE_READY;
 8000cb2:	687b      	ldr	r3, [r7, #4]
 8000cb4:	2201      	movs	r2, #1
 8000cb6:	f883 2025 	strb.w	r2, [r3, #37]	@ 0x25

    /* Process Unlocked */
    __HAL_UNLOCK(hdma);
 8000cba:	687b      	ldr	r3, [r7, #4]
 8000cbc:	2200      	movs	r2, #0
 8000cbe:	f883 2024 	strb.w	r2, [r3, #36]	@ 0x24

    /* Call User Abort callback */
    if (hdma->XferAbortCallback != NULL)
 8000cc2:	687b      	ldr	r3, [r7, #4]
 8000cc4:	6b9b      	ldr	r3, [r3, #56]	@ 0x38
 8000cc6:	2b00      	cmp	r3, #0
 8000cc8:	d003      	beq.n	8000cd2 <HAL_DMA_Abort_IT+0xc4>
    {
      hdma->XferAbortCallback(hdma);
 8000cca:	687b      	ldr	r3, [r7, #4]
 8000ccc:	6b9b      	ldr	r3, [r3, #56]	@ 0x38
 8000cce:	6878      	ldr	r0, [r7, #4]
 8000cd0:	4798      	blx	r3
    }
  }
  return status;
 8000cd2:	7bfb      	ldrb	r3, [r7, #15]
}
 8000cd4:	4618      	mov	r0, r3
 8000cd6:	3710      	adds	r7, #16
 8000cd8:	46bd      	mov	sp, r7
 8000cda:	bd80      	pop	{r7, pc}

08000cdc <HAL_GPIO_EXTI_IRQHandler>:
  * @brief  Handle EXTI interrupt request.
  * @param  GPIO_Pin Specifies the port pin connected to corresponding EXTI line.
  * @retval None
  */
void HAL_GPIO_EXTI_IRQHandler(uint16_t GPIO_Pin)
{
 8000cdc:	b580      	push	{r7, lr}
 8000cde:	b082      	sub	sp, #8
 8000ce0:	af00      	add	r7, sp, #0
 8000ce2:	4603      	mov	r3, r0
 8000ce4:	80fb      	strh	r3, [r7, #6]
  /* EXTI line interrupt detected */
  if (__HAL_GPIO_EXTI_GET_IT(GPIO_Pin) != 0x00u)
 8000ce6:	4b08      	ldr	r3, [pc, #32]	@ (8000d08 <HAL_GPIO_EXTI_IRQHandler+0x2c>)
 8000ce8:	695a      	ldr	r2, [r3, #20]
 8000cea:	88fb      	ldrh	r3, [r7, #6]
 8000cec:	4013      	ands	r3, r2
 8000cee:	2b00      	cmp	r3, #0
 8000cf0:	d006      	beq.n	8000d00 <HAL_GPIO_EXTI_IRQHandler+0x24>
  {
    __HAL_GPIO_EXTI_CLEAR_IT(GPIO_Pin);
 8000cf2:	4a05      	ldr	r2, [pc, #20]	@ (8000d08 <HAL_GPIO_EXTI_IRQHandler+0x2c>)
 8000cf4:	88fb      	ldrh	r3, [r7, #6]
 8000cf6:	6153      	str	r3, [r2, #20]
    HAL_GPIO_EXTI_Callback(GPIO_Pin);
 8000cf8:	88fb      	ldrh	r3, [r7, #6]
 8000cfa:	4618      	mov	r0, r3
 8000cfc:	f000 f806 	bl	8000d0c <HAL_GPIO_EXTI_Callback>
  }
}
 8000d00:	bf00      	nop
 8000d02:	3708      	adds	r7, #8
 8000d04:	46bd      	mov	sp, r7
 8000d06:	bd80      	pop	{r7, pc}
 8000d08:	40010400 	.word	0x40010400

08000d0c <HAL_GPIO_EXTI_Callback>:
  * @brief  EXTI line detection callback.
  * @param  GPIO_Pin: Specifies the port pin connected to corresponding EXTI line.
  * @retval None
  */
__weak void HAL_GPIO_EXTI_Callback(uint16_t GPIO_Pin)
{
 8000d0c:	b480      	push	{r7}
 8000d0e:	b083      	sub	sp, #12
 8000d10:	af00      	add	r7, sp, #0
 8000d12:	4603      	mov	r3, r0
 8000d14:	80fb      	strh	r3, [r7, #6]
  UNUSED(GPIO_Pin);

  /* NOTE: This function should not be modified, when the callback is needed,
           the HAL_GPIO_EXTI_Callback could be implemented in the user file
   */
}
 8000d16:	bf00      	nop
 8000d18:	370c      	adds	r7, #12
 8000d1a:	46bd      	mov	sp, r7
 8000d1c:	f85d 7b04 	ldr.w	r7, [sp], #4
 8000d20:	4770      	bx	lr
	...

08000d24 <HAL_I2C_Master_Transmit>:
  * @param  Timeout Timeout duration
  * @retval HAL status
  */
HAL_StatusTypeDef HAL_I2C_Master_Transmit(I2C_HandleTypeDef *hi2c, uint16_t DevAddress, uint8_t *pData,
                                          uint16_t Size, uint32_t Timeout)
{
 8000d24:	b580      	push	{r7, lr}
 8000d26:	b088      	sub	sp, #32
 8000d28:	af02      	add	r7, sp, #8
 8000d2a:	60f8      	str	r0, [r7, #12]
 8000d2c:	607a      	str	r2, [r7, #4]
 8000d2e:	461a      	mov	r2, r3
 8000d30:	460b      	mov	r3, r1
 8000d32:	817b      	strh	r3, [r7, #10]
 8000d34:	4613      	mov	r3, r2
 8000d36:	813b      	strh	r3, [r7, #8]
  uint32_t tickstart;
  uint32_t xfermode;

  if (hi2c->State == HAL_I2C_STATE_READY)
 8000d38:	68fb      	ldr	r3, [r7, #12]
 8000d3a:	f893 3041 	ldrb.w	r3, [r3, #65]	@ 0x41
 8000d3e:	b2db      	uxtb	r3, r3
 8000d40:	2b20      	cmp	r3, #32
 8000d42:	f040 80fd 	bne.w	8000f40 <HAL_I2C_Master_Transmit+0x21c>
  {
    /* Process Locked */
    __HAL_LOCK(hi2c);
 8000d46:	68fb      	ldr	r3, [r7, #12]
 8000d48:	f893 3040 	ldrb.w	r3, [r3, #64]	@ 0x40
 8000d4c:	2b01      	cmp	r3, #1
 8000d4e:	d101      	bne.n	8000d54 <HAL_I2C_Master_Transmit+0x30>
 8000d50:	2302      	movs	r3, #2
 8000d52:	e0f6      	b.n	8000f42 <HAL_I2C_Master_Transmit+0x21e>
 8000d54:	68fb      	ldr	r3, [r7, #12]
 8000d56:	2201      	movs	r2, #1
 8000d58:	f883 2040 	strb.w	r2, [r3, #64]	@ 0x40

    /* Init tickstart for timeout management*/
    tickstart = HAL_GetTick();
 8000d5c:	f7ff fe0a 	bl	8000974 <HAL_GetTick>
 8000d60:	6138      	str	r0, [r7, #16]

    if (I2C_WaitOnFlagUntilTimeout(hi2c, I2C_FLAG_BUSY, SET, I2C_TIMEOUT_BUSY, tickstart) != HAL_OK)
 8000d62:	693b      	ldr	r3, [r7, #16]
 8000d64:	9300      	str	r3, [sp, #0]
 8000d66:	2319      	movs	r3, #25
 8000d68:	2201      	movs	r2, #1
 8000d6a:	f44f 4100 	mov.w	r1, #32768	@ 0x8000
 8000d6e:	68f8      	ldr	r0, [r7, #12]
 8000d70:	f000 fa08 	bl	8001184 <I2C_WaitOnFlagUntilTimeout>
 8000d74:	4603      	mov	r3, r0
 8000d76:	2b00      	cmp	r3, #0
 8000d78:	d001      	beq.n	8000d7e <HAL_I2C_Master_Transmit+0x5a>
    {
      return HAL_ERROR;
 8000d7a:	2301      	movs	r3, #1
 8000d7c:	e0e1      	b.n	8000f42 <HAL_I2C_Master_Transmit+0x21e>
    }

    hi2c->State     = HAL_I2C_STATE_BUSY_TX;
 8000d7e:	68fb      	ldr	r3, [r7, #12]
 8000d80:	2221      	movs	r2, #33	@ 0x21
 8000d82:	f883 2041 	strb.w	r2, [r3, #65]	@ 0x41
    hi2c->Mode      = HAL_I2C_MODE_MASTER;
 8000d86:	68fb      	ldr	r3, [r7, #12]
 8000d88:	2210      	movs	r2, #16
 8000d8a:	f883 2042 	strb.w	r2, [r3, #66]	@ 0x42
    hi2c->ErrorCode = HAL_I2C_ERROR_NONE;
 8000d8e:	68fb      	ldr	r3, [r7, #12]
 8000d90:	2200      	movs	r2, #0
 8000d92:	645a      	str	r2, [r3, #68]	@ 0x44

    /* Prepare transfer parameters */
    hi2c->pBuffPtr  = pData;
 8000d94:	68fb      	ldr	r3, [r7, #12]
 8000d96:	687a      	ldr	r2, [r7, #4]
 8000d98:	625a      	str	r2, [r3, #36]	@ 0x24
    hi2c->XferCount = Size;
 8000d9a:	68fb      	ldr	r3, [r7, #12]
 8000d9c:	893a      	ldrh	r2, [r7, #8]
 8000d9e:	855a      	strh	r2, [r3, #42]	@ 0x2a
    hi2c->XferISR   = NULL;
 8000da0:	68fb      	ldr	r3, [r7, #12]
 8000da2:	2200      	movs	r2, #0
 8000da4:	635a      	str	r2, [r3, #52]	@ 0x34

    if (hi2c->XferCount > MAX_NBYTE_SIZE)
 8000da6:	68fb      	ldr	r3, [r7, #12]
 8000da8:	8d5b      	ldrh	r3, [r3, #42]	@ 0x2a
 8000daa:	b29b      	uxth	r3, r3
 8000dac:	2bff      	cmp	r3, #255	@ 0xff
 8000dae:	d906      	bls.n	8000dbe <HAL_I2C_Master_Transmit+0x9a>
    {
      hi2c->XferSize = MAX_NBYTE_SIZE;
 8000db0:	68fb      	ldr	r3, [r7, #12]
 8000db2:	22ff      	movs	r2, #255	@ 0xff
 8000db4:	851a      	strh	r2, [r3, #40]	@ 0x28
      xfermode = I2C_RELOAD_MODE;
 8000db6:	f04f 7380 	mov.w	r3, #16777216	@ 0x1000000
 8000dba:	617b      	str	r3, [r7, #20]
 8000dbc:	e007      	b.n	8000dce <HAL_I2C_Master_Transmit+0xaa>
    }
    else
    {
      hi2c->XferSize = hi2c->XferCount;
 8000dbe:	68fb      	ldr	r3, [r7, #12]
 8000dc0:	8d5b      	ldrh	r3, [r3, #42]	@ 0x2a
 8000dc2:	b29a      	uxth	r2, r3
 8000dc4:	68fb      	ldr	r3, [r7, #12]
 8000dc6:	851a      	strh	r2, [r3, #40]	@ 0x28
      xfermode = I2C_AUTOEND_MODE;
 8000dc8:	f04f 7300 	mov.w	r3, #33554432	@ 0x2000000
 8000dcc:	617b      	str	r3, [r7, #20]
    }

    if (hi2c->XferSize > 0U)
 8000dce:	68fb      	ldr	r3, [r7, #12]
 8000dd0:	8d1b      	ldrh	r3, [r3, #40]	@ 0x28
 8000dd2:	2b00      	cmp	r3, #0
 8000dd4:	d024      	beq.n	8000e20 <HAL_I2C_Master_Transmit+0xfc>
    {
      /* Preload TX register */
      /* Write data to TXDR */
      hi2c->Instance->TXDR = *hi2c->pBuffPtr;
 8000dd6:	68fb      	ldr	r3, [r7, #12]
 8000dd8:	6a5b      	ldr	r3, [r3, #36]	@ 0x24
 8000dda:	781a      	ldrb	r2, [r3, #0]
 8000ddc:	68fb      	ldr	r3, [r7, #12]
 8000dde:	681b      	ldr	r3, [r3, #0]
 8000de0:	629a      	str	r2, [r3, #40]	@ 0x28

      /* Increment Buffer pointer */
      hi2c->pBuffPtr++;
 8000de2:	68fb      	ldr	r3, [r7, #12]
 8000de4:	6a5b      	ldr	r3, [r3, #36]	@ 0x24
 8000de6:	1c5a      	adds	r2, r3, #1
 8000de8:	68fb      	ldr	r3, [r7, #12]
 8000dea:	625a      	str	r2, [r3, #36]	@ 0x24

      hi2c->XferCount--;
 8000dec:	68fb      	ldr	r3, [r7, #12]
 8000dee:	8d5b      	ldrh	r3, [r3, #42]	@ 0x2a
 8000df0:	b29b      	uxth	r3, r3
 8000df2:	3b01      	subs	r3, #1
 8000df4:	b29a      	uxth	r2, r3
 8000df6:	68fb      	ldr	r3, [r7, #12]
 8000df8:	855a      	strh	r2, [r3, #42]	@ 0x2a
      hi2c->XferSize--;
 8000dfa:	68fb      	ldr	r3, [r7, #12]
 8000dfc:	8d1b      	ldrh	r3, [r3, #40]	@ 0x28
 8000dfe:	3b01      	subs	r3, #1
 8000e00:	b29a      	uxth	r2, r3
 8000e02:	68fb      	ldr	r3, [r7, #12]
 8000e04:	851a      	strh	r2, [r3, #40]	@ 0x28

      /* Send Slave Address */
      /* Set NBYTES to write and reload if hi2c->XferCount > MAX_NBYTE_SIZE and generate RESTART */
      I2C_TransferConfig(hi2c, DevAddress, (uint8_t)(hi2c->XferSize + 1U), xfermode,
 8000e06:	68fb      	ldr	r3, [r7, #12]
 8000e08:	8d1b      	ldrh	r3, [r3, #40]	@ 0x28
 8000e0a:	b2db      	uxtb	r3, r3
 8000e0c:	3301      	adds	r3, #1
 8000e0e:	b2da      	uxtb	r2, r3
 8000e10:	8979      	ldrh	r1, [r7, #10]
 8000e12:	4b4e      	ldr	r3, [pc, #312]	@ (8000f4c <HAL_I2C_Master_Transmit+0x228>)
 8000e14:	9300      	str	r3, [sp, #0]
 8000e16:	697b      	ldr	r3, [r7, #20]
 8000e18:	68f8      	ldr	r0, [r7, #12]
 8000e1a:	f000 fb77 	bl	800150c <I2C_TransferConfig>
 8000e1e:	e066      	b.n	8000eee <HAL_I2C_Master_Transmit+0x1ca>
    }
    else
    {
      /* Send Slave Address */
      /* Set NBYTES to write and reload if hi2c->XferCount > MAX_NBYTE_SIZE and generate RESTART */
      I2C_TransferConfig(hi2c, DevAddress, (uint8_t)hi2c->XferSize, xfermode,
 8000e20:	68fb      	ldr	r3, [r7, #12]
 8000e22:	8d1b      	ldrh	r3, [r3, #40]	@ 0x28
 8000e24:	b2da      	uxtb	r2, r3
 8000e26:	8979      	ldrh	r1, [r7, #10]
 8000e28:	4b48      	ldr	r3, [pc, #288]	@ (8000f4c <HAL_I2C_Master_Transmit+0x228>)
 8000e2a:	9300      	str	r3, [sp, #0]
 8000e2c:	697b      	ldr	r3, [r7, #20]
 8000e2e:	68f8      	ldr	r0, [r7, #12]
 8000e30:	f000 fb6c 	bl	800150c <I2C_TransferConfig>
                         I2C_GENERATE_START_WRITE);
    }

    while (hi2c->XferCount > 0U)
 8000e34:	e05b      	b.n	8000eee <HAL_I2C_Master_Transmit+0x1ca>
    {
      /* Wait until TXIS flag is set */
      if (I2C_WaitOnTXISFlagUntilTimeout(hi2c, Timeout, tickstart) != HAL_OK)
 8000e36:	693a      	ldr	r2, [r7, #16]
 8000e38:	6a39      	ldr	r1, [r7, #32]
 8000e3a:	68f8      	ldr	r0, [r7, #12]
 8000e3c:	f000 f9fb 	bl	8001236 <I2C_WaitOnTXISFlagUntilTimeout>
 8000e40:	4603      	mov	r3, r0
 8000e42:	2b00      	cmp	r3, #0
 8000e44:	d001      	beq.n	8000e4a <HAL_I2C_Master_Transmit+0x126>
      {
        return HAL_ERROR;
 8000e46:	2301      	movs	r3, #1
 8000e48:	e07b      	b.n	8000f42 <HAL_I2C_Master_Transmit+0x21e>
      }
      /* Write data to TXDR */
      hi2c->Instance->TXDR = *hi2c->pBuffPtr;
 8000e4a:	68fb      	ldr	r3, [r7, #12]
 8000e4c:	6a5b      	ldr	r3, [r3, #36]	@ 0x24
 8000e4e:	781a      	ldrb	r2, [r3, #0]
 8000e50:	68fb      	ldr	r3, [r7, #12]
 8000e52:	681b      	ldr	r3, [r3, #0]
 8000e54:	629a      	str	r2, [r3, #40]	@ 0x28

      /* Increment Buffer pointer */
      hi2c->pBuffPtr++;
 8000e56:	68fb      	ldr	r3, [r7, #12]
 8000e58:	6a5b      	ldr	r3, [r3, #36]	@ 0x24
 8000e5a:	1c5a      	adds	r2, r3, #1
 8000e5c:	68fb      	ldr	r3, [r7, #12]
 8000e5e:	625a      	str	r2, [r3, #36]	@ 0x24

      hi2c->XferCount--;
 8000e60:	68fb      	ldr	r3, [r7, #12]
 8000e62:	8d5b      	ldrh	r3, [r3, #42]	@ 0x2a
 8000e64:	b29b      	uxth	r3, r3
 8000e66:	3b01      	subs	r3, #1
 8000e68:	b29a      	uxth	r2, r3
 8000e6a:	68fb      	ldr	r3, [r7, #12]
 8000e6c:	855a      	strh	r2, [r3, #42]	@ 0x2a
      hi2c->XferSize--;
 8000e6e:	68fb      	ldr	r3, [r7, #12]
 8000e70:	8d1b      	ldrh	r3, [r3, #40]	@ 0x28
 8000e72:	3b01      	subs	r3, #1
 8000e74:	b29a      	uxth	r2, r3
 8000e76:	68fb      	ldr	r3, [r7, #12]
 8000e78:	851a      	strh	r2, [r3, #40]	@ 0x28

      if ((hi2c->XferCount != 0U) && (hi2c->XferSize == 0U))
 8000e7a:	68fb      	ldr	r3, [r7, #12]
 8000e7c:	8d5b      	ldrh	r3, [r3, #42]	@ 0x2a
 8000e7e:	b29b      	uxth	r3, r3
 8000e80:	2b00      	cmp	r3, #0
 8000e82:	d034      	beq.n	8000eee <HAL_I2C_Master_Transmit+0x1ca>
 8000e84:	68fb      	ldr	r3, [r7, #12]
 8000e86:	8d1b      	ldrh	r3, [r3, #40]	@ 0x28
 8000e88:	2b00      	cmp	r3, #0
 8000e8a:	d130      	bne.n	8000eee <HAL_I2C_Master_Transmit+0x1ca>
      {
        /* Wait until TCR flag is set */
        if (I2C_WaitOnFlagUntilTimeout(hi2c, I2C_FLAG_TCR, RESET, Timeout, tickstart) != HAL_OK)
 8000e8c:	693b      	ldr	r3, [r7, #16]
 8000e8e:	9300      	str	r3, [sp, #0]
 8000e90:	6a3b      	ldr	r3, [r7, #32]
 8000e92:	2200      	movs	r2, #0
 8000e94:	2180      	movs	r1, #128	@ 0x80
 8000e96:	68f8      	ldr	r0, [r7, #12]
 8000e98:	f000 f974 	bl	8001184 <I2C_WaitOnFlagUntilTimeout>
 8000e9c:	4603      	mov	r3, r0
 8000e9e:	2b00      	cmp	r3, #0
 8000ea0:	d001      	beq.n	8000ea6 <HAL_I2C_Master_Transmit+0x182>
        {
          return HAL_ERROR;
 8000ea2:	2301      	movs	r3, #1
 8000ea4:	e04d      	b.n	8000f42 <HAL_I2C_Master_Transmit+0x21e>
        }

        if (hi2c->XferCount > MAX_NBYTE_SIZE)
 8000ea6:	68fb      	ldr	r3, [r7, #12]
 8000ea8:	8d5b      	ldrh	r3, [r3, #42]	@ 0x2a
 8000eaa:	b29b      	uxth	r3, r3
 8000eac:	2bff      	cmp	r3, #255	@ 0xff
 8000eae:	d90e      	bls.n	8000ece <HAL_I2C_Master_Transmit+0x1aa>
        {
          hi2c->XferSize = MAX_NBYTE_SIZE;
 8000eb0:	68fb      	ldr	r3, [r7, #12]
 8000eb2:	22ff      	movs	r2, #255	@ 0xff
 8000eb4:	851a      	strh	r2, [r3, #40]	@ 0x28
          I2C_TransferConfig(hi2c, DevAddress, (uint8_t)hi2c->XferSize, I2C_RELOAD_MODE,
 8000eb6:	68fb      	ldr	r3, [r7, #12]
 8000eb8:	8d1b      	ldrh	r3, [r3, #40]	@ 0x28
 8000eba:	b2da      	uxtb	r2, r3
 8000ebc:	8979      	ldrh	r1, [r7, #10]
 8000ebe:	2300      	movs	r3, #0
 8000ec0:	9300      	str	r3, [sp, #0]
 8000ec2:	f04f 7380 	mov.w	r3, #16777216	@ 0x1000000
 8000ec6:	68f8      	ldr	r0, [r7, #12]
 8000ec8:	f000 fb20 	bl	800150c <I2C_TransferConfig>
 8000ecc:	e00f      	b.n	8000eee <HAL_I2C_Master_Transmit+0x1ca>
                             I2C_NO_STARTSTOP);
        }
        else
        {
          hi2c->XferSize = hi2c->XferCount;
 8000ece:	68fb      	ldr	r3, [r7, #12]
 8000ed0:	8d5b      	ldrh	r3, [r3, #42]	@ 0x2a
 8000ed2:	b29a      	uxth	r2, r3
 8000ed4:	68fb      	ldr	r3, [r7, #12]
 8000ed6:	851a      	strh	r2, [r3, #40]	@ 0x28
          I2C_TransferConfig(hi2c, DevAddress, (uint8_t)hi2c->XferSize, I2C_AUTOEND_MODE,
 8000ed8:	68fb      	ldr	r3, [r7, #12]
 8000eda:	8d1b      	ldrh	r3, [r3, #40]	@ 0x28
 8000edc:	b2da      	uxtb	r2, r3
 8000ede:	8979      	ldrh	r1, [r7, #10]
 8000ee0:	2300      	movs	r3, #0
 8000ee2:	9300      	str	r3, [sp, #0]
 8000ee4:	f04f 7300 	mov.w	r3, #33554432	@ 0x2000000
 8000ee8:	68f8      	ldr	r0, [r7, #12]
 8000eea:	f000 fb0f 	bl	800150c <I2C_TransferConfig>
    while (hi2c->XferCount > 0U)
 8000eee:	68fb      	ldr	r3, [r7, #12]
 8000ef0:	8d5b      	ldrh	r3, [r3, #42]	@ 0x2a
 8000ef2:	b29b      	uxth	r3, r3
 8000ef4:	2b00      	cmp	r3, #0
 8000ef6:	d19e      	bne.n	8000e36 <HAL_I2C_Master_Transmit+0x112>
      }
    }

    /* No need to Check TC flag, with AUTOEND mode the stop is automatically generated */
    /* Wait until STOPF flag is set */
    if (I2C_WaitOnSTOPFlagUntilTimeout(hi2c, Timeout, tickstart) != HAL_OK)
 8000ef8:	693a      	ldr	r2, [r7, #16]
 8000efa:	6a39      	ldr	r1, [r7, #32]
 8000efc:	68f8      	ldr	r0, [r7, #12]
 8000efe:	f000 f9e1 	bl	80012c4 <I2C_WaitOnSTOPFlagUntilTimeout>
 8000f02:	4603      	mov	r3, r0
 8000f04:	2b00      	cmp	r3, #0
 8000f06:	d001      	beq.n	8000f0c <HAL_I2C_Master_Transmit+0x1e8>
    {
      return HAL_ERROR;
 8000f08:	2301      	movs	r3, #1
 8000f0a:	e01a      	b.n	8000f42 <HAL_I2C_Master_Transmit+0x21e>
    }

    /* Clear STOP Flag */
    __HAL_I2C_CLEAR_FLAG(hi2c, I2C_FLAG_STOPF);
 8000f0c:	68fb      	ldr	r3, [r7, #12]
 8000f0e:	681b      	ldr	r3, [r3, #0]
 8000f10:	2220      	movs	r2, #32
 8000f12:	61da      	str	r2, [r3, #28]

    /* Clear Configuration Register 2 */
    I2C_RESET_CR2(hi2c);
 8000f14:	68fb      	ldr	r3, [r7, #12]
 8000f16:	681b      	ldr	r3, [r3, #0]
 8000f18:	6859      	ldr	r1, [r3, #4]
 8000f1a:	68fb      	ldr	r3, [r7, #12]
 8000f1c:	681a      	ldr	r2, [r3, #0]
 8000f1e:	4b0c      	ldr	r3, [pc, #48]	@ (8000f50 <HAL_I2C_Master_Transmit+0x22c>)
 8000f20:	400b      	ands	r3, r1
 8000f22:	6053      	str	r3, [r2, #4]

    hi2c->State = HAL_I2C_STATE_READY;
 8000f24:	68fb      	ldr	r3, [r7, #12]
 8000f26:	2220      	movs	r2, #32
 8000f28:	f883 2041 	strb.w	r2, [r3, #65]	@ 0x41
    hi2c->Mode  = HAL_I2C_MODE_NONE;
 8000f2c:	68fb      	ldr	r3, [r7, #12]
 8000f2e:	2200      	movs	r2, #0
 8000f30:	f883 2042 	strb.w	r2, [r3, #66]	@ 0x42

    /* Process Unlocked */
    __HAL_UNLOCK(hi2c);
 8000f34:	68fb      	ldr	r3, [r7, #12]
 8000f36:	2200      	movs	r2, #0
 8000f38:	f883 2040 	strb.w	r2, [r3, #64]	@ 0x40

    return HAL_OK;
 8000f3c:	2300      	movs	r3, #0
 8000f3e:	e000      	b.n	8000f42 <HAL_I2C_Master_Transmit+0x21e>
  }
  else
  {
    return HAL_BUSY;
 8000f40:	2302      	movs	r3, #2
  }
}
 8000f42:	4618      	mov	r0, r3
 8000f44:	3718      	adds	r7, #24
 8000f46:	46bd      	mov	sp, r7
 8000f48:	bd80      	pop	{r7, pc}
 8000f4a:	bf00      	nop
 8000f4c:	80002000 	.word	0x80002000
 8000f50:	fe00e800 	.word	0xfe00e800

08000f54 <HAL_I2C_IsDeviceReady>:
  * @param  Timeout Timeout duration
  * @retval HAL status
  */
HAL_StatusTypeDef HAL_I2C_IsDeviceReady(I2C_HandleTypeDef *hi2c, uint16_t DevAddress, uint32_t Trials,
                                        uint32_t Timeout)
{
 8000f54:	b580      	push	{r7, lr}
 8000f56:	b08a      	sub	sp, #40	@ 0x28
 8000f58:	af02      	add	r7, sp, #8
 8000f5a:	60f8      	str	r0, [r7, #12]
 8000f5c:	607a      	str	r2, [r7, #4]
 8000f5e:	603b      	str	r3, [r7, #0]
 8000f60:	460b      	mov	r3, r1
 8000f62:	817b      	strh	r3, [r7, #10]
  uint32_t tickstart;

  __IO uint32_t I2C_Trials = 0UL;
 8000f64:	2300      	movs	r3, #0
 8000f66:	617b      	str	r3, [r7, #20]

  FlagStatus tmp1;
  FlagStatus tmp2;

  if (hi2c->State == HAL_I2C_STATE_READY)
 8000f68:	68fb      	ldr	r3, [r7, #12]
 8000f6a:	f893 3041 	ldrb.w	r3, [r3, #65]	@ 0x41
 8000f6e:	b2db      	uxtb	r3, r3
 8000f70:	2b20      	cmp	r3, #32
 8000f72:	f040 80de 	bne.w	8001132 <HAL_I2C_IsDeviceReady+0x1de>
  {
    if (__HAL_I2C_GET_FLAG(hi2c, I2C_FLAG_BUSY) == SET)
 8000f76:	68fb      	ldr	r3, [r7, #12]
 8000f78:	681b      	ldr	r3, [r3, #0]
 8000f7a:	699b      	ldr	r3, [r3, #24]
 8000f7c:	f403 4300 	and.w	r3, r3, #32768	@ 0x8000
 8000f80:	f5b3 4f00 	cmp.w	r3, #32768	@ 0x8000
 8000f84:	d101      	bne.n	8000f8a <HAL_I2C_IsDeviceReady+0x36>
    {
      return HAL_BUSY;
 8000f86:	2302      	movs	r3, #2
 8000f88:	e0d4      	b.n	8001134 <HAL_I2C_IsDeviceReady+0x1e0>
    }

    /* Process Locked */
    __HAL_LOCK(hi2c);
 8000f8a:	68fb      	ldr	r3, [r7, #12]
 8000f8c:	f893 3040 	ldrb.w	r3, [r3, #64]	@ 0x40
 8000f90:	2b01      	cmp	r3, #1
 8000f92:	d101      	bne.n	8000f98 <HAL_I2C_IsDeviceReady+0x44>
 8000f94:	2302      	movs	r3, #2
 8000f96:	e0cd      	b.n	8001134 <HAL_I2C_IsDeviceReady+0x1e0>
 8000f98:	68fb      	ldr	r3, [r7, #12]
 8000f9a:	2201      	movs	r2, #1
 8000f9c:	f883 2040 	strb.w	r2, [r3, #64]	@ 0x40

    hi2c->State = HAL_I2C_STATE_BUSY;
 8000fa0:	68fb      	ldr	r3, [r7, #12]
 8000fa2:	2224      	movs	r2, #36	@ 0x24
 8000fa4:	f883 2041 	strb.w	r2, [r3, #65]	@ 0x41
    hi2c->ErrorCode = HAL_I2C_ERROR_NONE;
 8000fa8:	68fb      	ldr	r3, [r7, #12]
 8000faa:	2200      	movs	r2, #0
 8000fac:	645a      	str	r2, [r3, #68]	@ 0x44

    do
    {
      /* Generate Start */
      hi2c->Instance->CR2 = I2C_GENERATE_START(hi2c->Init.AddressingMode, DevAddress);
 8000fae:	68fb      	ldr	r3, [r7, #12]
 8000fb0:	68db      	ldr	r3, [r3, #12]
 8000fb2:	2b01      	cmp	r3, #1
 8000fb4:	d107      	bne.n	8000fc6 <HAL_I2C_IsDeviceReady+0x72>
 8000fb6:	897b      	ldrh	r3, [r7, #10]
 8000fb8:	f3c3 0309 	ubfx	r3, r3, #0, #10
 8000fbc:	f043 7300 	orr.w	r3, r3, #33554432	@ 0x2000000
 8000fc0:	f443 5300 	orr.w	r3, r3, #8192	@ 0x2000
 8000fc4:	e006      	b.n	8000fd4 <HAL_I2C_IsDeviceReady+0x80>
 8000fc6:	897b      	ldrh	r3, [r7, #10]
 8000fc8:	f3c3 0309 	ubfx	r3, r3, #0, #10
 8000fcc:	f043 7300 	orr.w	r3, r3, #33554432	@ 0x2000000
 8000fd0:	f443 5320 	orr.w	r3, r3, #10240	@ 0x2800
 8000fd4:	68fa      	ldr	r2, [r7, #12]
 8000fd6:	6812      	ldr	r2, [r2, #0]
 8000fd8:	6053      	str	r3, [r2, #4]

      /* No need to Check TC flag, with AUTOEND mode the stop is automatically generated */
      /* Wait until STOPF flag is set or a NACK flag is set*/
      tickstart = HAL_GetTick();
 8000fda:	f7ff fccb 	bl	8000974 <HAL_GetTick>
 8000fde:	61b8      	str	r0, [r7, #24]

      tmp1 = __HAL_I2C_GET_FLAG(hi2c, I2C_FLAG_STOPF);
 8000fe0:	68fb      	ldr	r3, [r7, #12]
 8000fe2:	681b      	ldr	r3, [r3, #0]
 8000fe4:	699b      	ldr	r3, [r3, #24]
 8000fe6:	f003 0320 	and.w	r3, r3, #32
 8000fea:	2b20      	cmp	r3, #32
 8000fec:	bf0c      	ite	eq
 8000fee:	2301      	moveq	r3, #1
 8000ff0:	2300      	movne	r3, #0
 8000ff2:	b2db      	uxtb	r3, r3
 8000ff4:	77fb      	strb	r3, [r7, #31]
      tmp2 = __HAL_I2C_GET_FLAG(hi2c, I2C_FLAG_AF);
 8000ff6:	68fb      	ldr	r3, [r7, #12]
 8000ff8:	681b      	ldr	r3, [r3, #0]
 8000ffa:	699b      	ldr	r3, [r3, #24]
 8000ffc:	f003 0310 	and.w	r3, r3, #16
 8001000:	2b10      	cmp	r3, #16
 8001002:	bf0c      	ite	eq
 8001004:	2301      	moveq	r3, #1
 8001006:	2300      	movne	r3, #0
 8001008:	b2db      	uxtb	r3, r3
 800100a:	77bb      	strb	r3, [r7, #30]

      while ((tmp1 == RESET) && (tmp2 == RESET))
 800100c:	e034      	b.n	8001078 <HAL_I2C_IsDeviceReady+0x124>
      {
        if (Timeout != HAL_MAX_DELAY)
 800100e:	683b      	ldr	r3, [r7, #0]
 8001010:	f1b3 3fff 	cmp.w	r3, #4294967295	@ 0xffffffff
 8001014:	d01a      	beq.n	800104c <HAL_I2C_IsDeviceReady+0xf8>
        {
          if (((HAL_GetTick() - tickstart) > Timeout) || (Timeout == 0U))
 8001016:	f7ff fcad 	bl	8000974 <HAL_GetTick>
 800101a:	4602      	mov	r2, r0
 800101c:	69bb      	ldr	r3, [r7, #24]
 800101e:	1ad3      	subs	r3, r2, r3
 8001020:	683a      	ldr	r2, [r7, #0]
 8001022:	429a      	cmp	r2, r3
 8001024:	d302      	bcc.n	800102c <HAL_I2C_IsDeviceReady+0xd8>
 8001026:	683b      	ldr	r3, [r7, #0]
 8001028:	2b00      	cmp	r3, #0
 800102a:	d10f      	bne.n	800104c <HAL_I2C_IsDeviceReady+0xf8>
          {
            /* Update I2C state */
            hi2c->State = HAL_I2C_STATE_READY;
 800102c:	68fb      	ldr	r3, [r7, #12]
 800102e:	2220      	movs	r2, #32
 8001030:	f883 2041 	strb.w	r2, [r3, #65]	@ 0x41

            /* Update I2C error code */
            hi2c->ErrorCode |= HAL_I2C_ERROR_TIMEOUT;
 8001034:	68fb      	ldr	r3, [r7, #12]
 8001036:	6c5b      	ldr	r3, [r3, #68]	@ 0x44
 8001038:	f043 0220 	orr.w	r2, r3, #32
 800103c:	68fb      	ldr	r3, [r7, #12]
 800103e:	645a      	str	r2, [r3, #68]	@ 0x44

            /* Process Unlocked */
            __HAL_UNLOCK(hi2c);
 8001040:	68fb      	ldr	r3, [r7, #12]
 8001042:	2200      	movs	r2, #0
 8001044:	f883 2040 	strb.w	r2, [r3, #64]	@ 0x40

            return HAL_ERROR;
 8001048:	2301      	movs	r3, #1
 800104a:	e073      	b.n	8001134 <HAL_I2C_IsDeviceReady+0x1e0>
          }
        }

        tmp1 = __HAL_I2C_GET_FLAG(hi2c, I2C_FLAG_STOPF);
 800104c:	68fb      	ldr	r3, [r7, #12]
 800104e:	681b      	ldr	r3, [r3, #0]
 8001050:	699b      	ldr	r3, [r3, #24]
 8001052:	f003 0320 	and.w	r3, r3, #32
 8001056:	2b20      	cmp	r3, #32
 8001058:	bf0c      	ite	eq
 800105a:	2301      	moveq	r3, #1
 800105c:	2300      	movne	r3, #0
 800105e:	b2db      	uxtb	r3, r3
 8001060:	77fb      	strb	r3, [r7, #31]
        tmp2 = __HAL_I2C_GET_FLAG(hi2c, I2C_FLAG_AF);
 8001062:	68fb      	ldr	r3, [r7, #12]
 8001064:	681b      	ldr	r3, [r3, #0]
 8001066:	699b      	ldr	r3, [r3, #24]
 8001068:	f003 0310 	and.w	r3, r3, #16
 800106c:	2b10      	cmp	r3, #16
 800106e:	bf0c      	ite	eq
 8001070:	2301      	moveq	r3, #1
 8001072:	2300      	movne	r3, #0
 8001074:	b2db      	uxtb	r3, r3
 8001076:	77bb      	strb	r3, [r7, #30]
      while ((tmp1 == RESET) && (tmp2 == RESET))
 8001078:	7ffb      	ldrb	r3, [r7, #31]
 800107a:	2b00      	cmp	r3, #0
 800107c:	d102      	bne.n	8001084 <HAL_I2C_IsDeviceReady+0x130>
 800107e:	7fbb      	ldrb	r3, [r7, #30]
 8001080:	2b00      	cmp	r3, #0
 8001082:	d0c4      	beq.n	800100e <HAL_I2C_IsDeviceReady+0xba>
      }

      /* Check if the NACKF flag has not been set */
      if (__HAL_I2C_GET_FLAG(hi2c, I2C_FLAG_AF) == RESET)
 8001084:	68fb      	ldr	r3, [r7, #12]
 8001086:	681b      	ldr	r3, [r3, #0]
 8001088:	699b      	ldr	r3, [r3, #24]
 800108a:	f003 0310 	and.w	r3, r3, #16
 800108e:	2b10      	cmp	r3, #16
 8001090:	d024      	beq.n	80010dc <HAL_I2C_IsDeviceReady+0x188>
      {
        /* Wait until STOPF flag is reset */
        if (I2C_WaitOnFlagUntilTimeout(hi2c, I2C_FLAG_STOPF, RESET, Timeout, tickstart) != HAL_OK)
 8001092:	69bb      	ldr	r3, [r7, #24]
 8001094:	9300      	str	r3, [sp, #0]
 8001096:	683b      	ldr	r3, [r7, #0]
 8001098:	2200      	movs	r2, #0
 800109a:	2120      	movs	r1, #32
 800109c:	68f8      	ldr	r0, [r7, #12]
 800109e:	f000 f871 	bl	8001184 <I2C_WaitOnFlagUntilTimeout>
 80010a2:	4603      	mov	r3, r0
 80010a4:	2b00      	cmp	r3, #0
 80010a6:	d00b      	beq.n	80010c0 <HAL_I2C_IsDeviceReady+0x16c>
        {
          /* A non acknowledge appear during STOP Flag waiting process, a new trial must be performed */
          if (hi2c->ErrorCode == HAL_I2C_ERROR_AF)
 80010a8:	68fb      	ldr	r3, [r7, #12]
 80010aa:	6c5b      	ldr	r3, [r3, #68]	@ 0x44
 80010ac:	2b04      	cmp	r3, #4
 80010ae:	d128      	bne.n	8001102 <HAL_I2C_IsDeviceReady+0x1ae>
          {
            /* Clear STOP Flag */
            __HAL_I2C_CLEAR_FLAG(hi2c, I2C_FLAG_STOPF);
 80010b0:	68fb      	ldr	r3, [r7, #12]
 80010b2:	681b      	ldr	r3, [r3, #0]
 80010b4:	2220      	movs	r2, #32
 80010b6:	61da      	str	r2, [r3, #28]

            /* Reset the error code for next trial */
            hi2c->ErrorCode = HAL_I2C_ERROR_NONE;
 80010b8:	68fb      	ldr	r3, [r7, #12]
 80010ba:	2200      	movs	r2, #0
 80010bc:	645a      	str	r2, [r3, #68]	@ 0x44
 80010be:	e020      	b.n	8001102 <HAL_I2C_IsDeviceReady+0x1ae>
        else
        {
          /* A acknowledge appear during STOP Flag waiting process, this mean that device respond to its address */

          /* Clear STOP Flag */
          __HAL_I2C_CLEAR_FLAG(hi2c, I2C_FLAG_STOPF);
 80010c0:	68fb      	ldr	r3, [r7, #12]
 80010c2:	681b      	ldr	r3, [r3, #0]
 80010c4:	2220      	movs	r2, #32
 80010c6:	61da      	str	r2, [r3, #28]

          /* Device is ready */
          hi2c->State = HAL_I2C_STATE_READY;
 80010c8:	68fb      	ldr	r3, [r7, #12]
 80010ca:	2220      	movs	r2, #32
 80010cc:	f883 2041 	strb.w	r2, [r3, #65]	@ 0x41

          /* Process Unlocked */
          __HAL_UNLOCK(hi2c);
 80010d0:	68fb      	ldr	r3, [r7, #12]
 80010d2:	2200      	movs	r2, #0
 80010d4:	f883 2040 	strb.w	r2, [r3, #64]	@ 0x40

          return HAL_OK;
 80010d8:	2300      	movs	r3, #0
 80010da:	e02b      	b.n	8001134 <HAL_I2C_IsDeviceReady+0x1e0>
      {
        /* A non acknowledge is detected, this mean that device not respond to its address,
           a new trial must be performed */

        /* Clear NACK Flag */
        __HAL_I2C_CLEAR_FLAG(hi2c, I2C_FLAG_AF);
 80010dc:	68fb      	ldr	r3, [r7, #12]
 80010de:	681b      	ldr	r3, [r3, #0]
 80010e0:	2210      	movs	r2, #16
 80010e2:	61da      	str	r2, [r3, #28]

        /* Wait until STOPF flag is reset */
        if (I2C_WaitOnFlagUntilTimeout(hi2c, I2C_FLAG_STOPF, RESET, Timeout, tickstart) == HAL_OK)
 80010e4:	69bb      	ldr	r3, [r7, #24]
 80010e6:	9300      	str	r3, [sp, #0]
 80010e8:	683b      	ldr	r3, [r7, #0]
 80010ea:	2200      	movs	r2, #0
 80010ec:	2120      	movs	r1, #32
 80010ee:	68f8      	ldr	r0, [r7, #12]
 80010f0:	f000 f848 	bl	8001184 <I2C_WaitOnFlagUntilTimeout>
 80010f4:	4603      	mov	r3, r0
 80010f6:	2b00      	cmp	r3, #0
 80010f8:	d103      	bne.n	8001102 <HAL_I2C_IsDeviceReady+0x1ae>
        {
          /* Clear STOP Flag, auto generated with autoend*/
          __HAL_I2C_CLEAR_FLAG(hi2c, I2C_FLAG_STOPF);
 80010fa:	68fb      	ldr	r3, [r7, #12]
 80010fc:	681b      	ldr	r3, [r3, #0]
 80010fe:	2220      	movs	r2, #32
 8001100:	61da      	str	r2, [r3, #28]
        }
      }

      /* Increment Trials */
      I2C_Trials++;
 8001102:	697b      	ldr	r3, [r7, #20]
 8001104:	3301      	adds	r3, #1
 8001106:	617b      	str	r3, [r7, #20]
    } while (I2C_Trials < Trials);
 8001108:	697b      	ldr	r3, [r7, #20]
 800110a:	687a      	ldr	r2, [r7, #4]
 800110c:	429a      	cmp	r2, r3
 800110e:	f63f af4e 	bhi.w	8000fae <HAL_I2C_IsDeviceReady+0x5a>

    /* Update I2C state */
    hi2c->State = HAL_I2C_STATE_READY;
 8001112:	68fb      	ldr	r3, [r7, #12]
 8001114:	2220      	movs	r2, #32
 8001116:	f883 2041 	strb.w	r2, [r3, #65]	@ 0x41

    /* Update I2C error code */
    hi2c->ErrorCode |= HAL_I2C_ERROR_TIMEOUT;
 800111a:	68fb      	ldr	r3, [r7, #12]
 800111c:	6c5b      	ldr	r3, [r3, #68]	@ 0x44
 800111e:	f043 0220 	orr.w	r2, r3, #32
 8001122:	68fb      	ldr	r3, [r7, #12]
 8001124:	645a      	str	r2, [r3, #68]	@ 0x44

    /* Process Unlocked */
    __HAL_UNLOCK(hi2c);
 8001126:	68fb      	ldr	r3, [r7, #12]
 8001128:	2200      	movs	r2, #0
 800112a:	f883 2040 	strb.w	r2, [r3, #64]	@ 0x40

    return HAL_ERROR;
 800112e:	2301      	movs	r3, #1
 8001130:	e000      	b.n	8001134 <HAL_I2C_IsDeviceReady+0x1e0>
  }
  else
  {
    return HAL_BUSY;
 8001132:	2302      	movs	r3, #2
  }
}
 8001134:	4618      	mov	r0, r3
 8001136:	3720      	adds	r7, #32
 8001138:	46bd      	mov	sp, r7
 800113a:	bd80      	pop	{r7, pc}

0800113c <I2C_Flush_TXDR>:
  * @brief  I2C Tx data register flush process.
  * @param  hi2c I2C handle.
  * @retval None
  */
static void I2C_Flush_TXDR(I2C_HandleTypeDef *hi2c)
{
 800113c:	b480      	push	{r7}
 800113e:	b083      	sub	sp, #12
 8001140:	af00      	add	r7, sp, #0
 8001142:	6078      	str	r0, [r7, #4]
  /* If a pending TXIS flag is set */
  /* Write a dummy data in TXDR to clear it */
  if (__HAL_I2C_GET_FLAG(hi2c, I2C_FLAG_TXIS) != RESET)
 8001144:	687b      	ldr	r3, [r7, #4]
 8001146:	681b      	ldr	r3, [r3, #0]
 8001148:	699b      	ldr	r3, [r3, #24]
 800114a:	f003 0302 	and.w	r3, r3, #2
 800114e:	2b02      	cmp	r3, #2
 8001150:	d103      	bne.n	800115a <I2C_Flush_TXDR+0x1e>
  {
    hi2c->Instance->TXDR = 0x00U;
 8001152:	687b      	ldr	r3, [r7, #4]
 8001154:	681b      	ldr	r3, [r3, #0]
 8001156:	2200      	movs	r2, #0
 8001158:	629a      	str	r2, [r3, #40]	@ 0x28
  }

  /* Flush TX register if not empty */
  if (__HAL_I2C_GET_FLAG(hi2c, I2C_FLAG_TXE) == RESET)
 800115a:	687b      	ldr	r3, [r7, #4]
 800115c:	681b      	ldr	r3, [r3, #0]
 800115e:	699b      	ldr	r3, [r3, #24]
 8001160:	f003 0301 	and.w	r3, r3, #1
 8001164:	2b01      	cmp	r3, #1
 8001166:	d007      	beq.n	8001178 <I2C_Flush_TXDR+0x3c>
  {
    __HAL_I2C_CLEAR_FLAG(hi2c, I2C_FLAG_TXE);
 8001168:	687b      	ldr	r3, [r7, #4]
 800116a:	681b      	ldr	r3, [r3, #0]
 800116c:	699a      	ldr	r2, [r3, #24]
 800116e:	687b      	ldr	r3, [r7, #4]
 8001170:	681b      	ldr	r3, [r3, #0]
 8001172:	f042 0201 	orr.w	r2, r2, #1
 8001176:	619a      	str	r2, [r3, #24]
  }
}
 8001178:	bf00      	nop
 800117a:	370c      	adds	r7, #12
 800117c:	46bd      	mov	sp, r7
 800117e:	f85d 7b04 	ldr.w	r7, [sp], #4
 8001182:	4770      	bx	lr

08001184 <I2C_WaitOnFlagUntilTimeout>:
  * @param  Tickstart Tick start value
  * @retval HAL status
  */
static HAL_StatusTypeDef I2C_WaitOnFlagUntilTimeout(I2C_HandleTypeDef *hi2c, uint32_t Flag, FlagStatus Status,
                                                    uint32_t Timeout, uint32_t Tickstart)
{
 8001184:	b580      	push	{r7, lr}
 8001186:	b084      	sub	sp, #16
 8001188:	af00      	add	r7, sp, #0
 800118a:	60f8      	str	r0, [r7, #12]
 800118c:	60b9      	str	r1, [r7, #8]
 800118e:	603b      	str	r3, [r7, #0]
 8001190:	4613      	mov	r3, r2
 8001192:	71fb      	strb	r3, [r7, #7]
  while (__HAL_I2C_GET_FLAG(hi2c, Flag) == Status)
 8001194:	e03b      	b.n	800120e <I2C_WaitOnFlagUntilTimeout+0x8a>
  {
    /* Check if an error is detected */
    if (I2C_IsErrorOccurred(hi2c, Timeout, Tickstart) != HAL_OK)
 8001196:	69ba      	ldr	r2, [r7, #24]
 8001198:	6839      	ldr	r1, [r7, #0]
 800119a:	68f8      	ldr	r0, [r7, #12]
 800119c:	f000 f8d6 	bl	800134c <I2C_IsErrorOccurred>
 80011a0:	4603      	mov	r3, r0
 80011a2:	2b00      	cmp	r3, #0
 80011a4:	d001      	beq.n	80011aa <I2C_WaitOnFlagUntilTimeout+0x26>
    {
      return HAL_ERROR;
 80011a6:	2301      	movs	r3, #1
 80011a8:	e041      	b.n	800122e <I2C_WaitOnFlagUntilTimeout+0xaa>
    }

    /* Check for the Timeout */
    if (Timeout != HAL_MAX_DELAY)
 80011aa:	683b      	ldr	r3, [r7, #0]
 80011ac:	f1b3 3fff 	cmp.w	r3, #4294967295	@ 0xffffffff
 80011b0:	d02d      	beq.n	800120e <I2C_WaitOnFlagUntilTimeout+0x8a>
    {
      if (((HAL_GetTick() - Tickstart) > Timeout) || (Timeout == 0U))
 80011b2:	f7ff fbdf 	bl	8000974 <HAL_GetTick>
 80011b6:	4602      	mov	r2, r0
 80011b8:	69bb      	ldr	r3, [r7, #24]
 80011ba:	1ad3      	subs	r3, r2, r3
 80011bc:	683a      	ldr	r2, [r7, #0]
 80011be:	429a      	cmp	r2, r3
 80011c0:	d302      	bcc.n	80011c8 <I2C_WaitOnFlagUntilTimeout+0x44>
 80011c2:	683b      	ldr	r3, [r7, #0]
 80011c4:	2b00      	cmp	r3, #0
 80011c6:	d122      	bne.n	800120e <I2C_WaitOnFlagUntilTimeout+0x8a>
      {
        if (__HAL_I2C_GET_FLAG(hi2c, Flag) == Status)
 80011c8:	68fb      	ldr	r3, [r7, #12]
 80011ca:	681b      	ldr	r3, [r3, #0]
 80011cc:	699a      	ldr	r2, [r3, #24]
 80011ce:	68bb      	ldr	r3, [r7, #8]
 80011d0:	4013      	ands	r3, r2
 80011d2:	68ba      	ldr	r2, [r7, #8]
 80011d4:	429a      	cmp	r2, r3
 80011d6:	bf0c      	ite	eq
 80011d8:	2301      	moveq	r3, #1
 80011da:	2300      	movne	r3, #0
 80011dc:	b2db      	uxtb	r3, r3
 80011de:	461a      	mov	r2, r3
 80011e0:	79fb      	ldrb	r3, [r7, #7]
 80011e2:	429a      	cmp	r2, r3
 80011e4:	d113      	bne.n	800120e <I2C_WaitOnFlagUntilTimeout+0x8a>
        {
          hi2c->ErrorCode |= HAL_I2C_ERROR_TIMEOUT;
 80011e6:	68fb      	ldr	r3, [r7, #12]
 80011e8:	6c5b      	ldr	r3, [r3, #68]	@ 0x44
 80011ea:	f043 0220 	orr.w	r2, r3, #32
 80011ee:	68fb      	ldr	r3, [r7, #12]
 80011f0:	645a      	str	r2, [r3, #68]	@ 0x44
          hi2c->State = HAL_I2C_STATE_READY;
 80011f2:	68fb      	ldr	r3, [r7, #12]
 80011f4:	2220      	movs	r2, #32
 80011f6:	f883 2041 	strb.w	r2, [r3, #65]	@ 0x41
          hi2c->Mode = HAL_I2C_MODE_NONE;
 80011fa:	68fb      	ldr	r3, [r7, #12]
 80011fc:	2200      	movs	r2, #0
 80011fe:	f883 2042 	strb.w	r2, [r3, #66]	@ 0x42

          /* Process Unlocked */
          __HAL_UNLOCK(hi2c);
 8001202:	68fb      	ldr	r3, [r7, #12]
 8001204:	2200      	movs	r2, #0
 8001206:	f883 2040 	strb.w	r2, [r3, #64]	@ 0x40
          return HAL_ERROR;
 800120a:	2301      	movs	r3, #1
 800120c:	e00f      	b.n	800122e <I2C_WaitOnFlagUntilTimeout+0xaa>
  while (__HAL_I2C_GET_FLAG(hi2c, Flag) == Status)
 800120e:	68fb      	ldr	r3, [r7, #12]
 8001210:	681b      	ldr	r3, [r3, #0]
 8001212:	699a      	ldr	r2, [r3, #24]
 8001214:	68bb      	ldr	r3, [r7, #8]
 8001216:	4013      	ands	r3, r2
 8001218:	68ba      	ldr	r2, [r7, #8]
 800121a:	429a      	cmp	r2, r3
 800121c:	bf0c      	ite	eq
 800121e:	2301      	moveq	r3, #1
 8001220:	2300      	movne	r3, #0
 8001222:	b2db      	uxtb	r3, r3
 8001224:	461a      	mov	r2, r3
 8001226:	79fb      	ldrb	r3, [r7, #7]
 8001228:	429a      	cmp	r2, r3
 800122a:	d0b4      	beq.n	8001196 <I2C_WaitOnFlagUntilTimeout+0x12>
        }
      }
    }
  }
  return HAL_OK;
 800122c:	2300      	movs	r3, #0
}
 800122e:	4618      	mov	r0, r3
 8001230:	3710      	adds	r7, #16
 8001232:	46bd      	mov	sp, r7
 8001234:	bd80      	pop	{r7, pc}

08001236 <I2C_WaitOnTXISFlagUntilTimeout>:
  * @param  Tickstart Tick start value
  * @retval HAL status
  */
static HAL_StatusTypeDef I2C_WaitOnTXISFlagUntilTimeout(I2C_HandleTypeDef *hi2c, uint32_t Timeout,
                                                        uint32_t Tickstart)
{
 8001236:	b580      	push	{r7, lr}
 8001238:	b084      	sub	sp, #16
 800123a:	af00      	add	r7, sp, #0
 800123c:	60f8      	str	r0, [r7, #12]
 800123e:	60b9      	str	r1, [r7, #8]
 8001240:	607a      	str	r2, [r7, #4]
  while (__HAL_I2C_GET_FLAG(hi2c, I2C_FLAG_TXIS) == RESET)
 8001242:	e033      	b.n	80012ac <I2C_WaitOnTXISFlagUntilTimeout+0x76>
  {
    /* Check if an error is detected */
    if (I2C_IsErrorOccurred(hi2c, Timeout, Tickstart) != HAL_OK)
 8001244:	687a      	ldr	r2, [r7, #4]
 8001246:	68b9      	ldr	r1, [r7, #8]
 8001248:	68f8      	ldr	r0, [r7, #12]
 800124a:	f000 f87f 	bl	800134c <I2C_IsErrorOccurred>
 800124e:	4603      	mov	r3, r0
 8001250:	2b00      	cmp	r3, #0
 8001252:	d001      	beq.n	8001258 <I2C_WaitOnTXISFlagUntilTimeout+0x22>
    {
      return HAL_ERROR;
 8001254:	2301      	movs	r3, #1
 8001256:	e031      	b.n	80012bc <I2C_WaitOnTXISFlagUntilTimeout+0x86>
    }

    /* Check for the Timeout */
    if (Timeout != HAL_MAX_DELAY)
 8001258:	68bb      	ldr	r3, [r7, #8]
 800125a:	f1b3 3fff 	cmp.w	r3, #4294967295	@ 0xffffffff
 800125e:	d025      	beq.n	80012ac <I2C_WaitOnTXISFlagUntilTimeout+0x76>
    {
      if (((HAL_GetTick() - Tickstart) > Timeout) || (Timeout == 0U))
 8001260:	f7ff fb88 	bl	8000974 <HAL_GetTick>
 8001264:	4602      	mov	r2, r0
 8001266:	687b      	ldr	r3, [r7, #4]
 8001268:	1ad3      	subs	r3, r2, r3
 800126a:	68ba      	ldr	r2, [r7, #8]
 800126c:	429a      	cmp	r2, r3
 800126e:	d302      	bcc.n	8001276 <I2C_WaitOnTXISFlagUntilTimeout+0x40>
 8001270:	68bb      	ldr	r3, [r7, #8]
 8001272:	2b00      	cmp	r3, #0
 8001274:	d11a      	bne.n	80012ac <I2C_WaitOnTXISFlagUntilTimeout+0x76>
      {
        if (__HAL_I2C_GET_FLAG(hi2c, I2C_FLAG_TXIS) == RESET)
 8001276:	68fb      	ldr	r3, [r7, #12]
 8001278:	681b      	ldr	r3, [r3, #0]
 800127a:	699b      	ldr	r3, [r3, #24]
 800127c:	f003 0302 	and.w	r3, r3, #2
 8001280:	2b02      	cmp	r3, #2
 8001282:	d013      	beq.n	80012ac <I2C_WaitOnTXISFlagUntilTimeout+0x76>
        {
          hi2c->ErrorCode |= HAL_I2C_ERROR_TIMEOUT;
 8001284:	68fb      	ldr	r3, [r7, #12]
 8001286:	6c5b      	ldr	r3, [r3, #68]	@ 0x44
 8001288:	f043 0220 	orr.w	r2, r3, #32
 800128c:	68fb      	ldr	r3, [r7, #12]
 800128e:	645a      	str	r2, [r3, #68]	@ 0x44
          hi2c->State = HAL_I2C_STATE_READY;
 8001290:	68fb      	ldr	r3, [r7, #12]
 8001292:	2220      	movs	r2, #32
 8001294:	f883 2041 	strb.w	r2, [r3, #65]	@ 0x41
          hi2c->Mode = HAL_I2C_MODE_NONE;
 8001298:	68fb      	ldr	r3, [r7, #12]
 800129a:	2200      	movs	r2, #0
 800129c:	f883 2042 	strb.w	r2, [r3, #66]	@ 0x42

          /* Process Unlocked */
          __HAL_UNLOCK(hi2c);
 80012a0:	68fb      	ldr	r3, [r7, #12]
 80012a2:	2200      	movs	r2, #0
 80012a4:	f883 2040 	strb.w	r2, [r3, #64]	@ 0x40

          return HAL_ERROR;
 80012a8:	2301      	movs	r3, #1
 80012aa:	e007      	b.n	80012bc <I2C_WaitOnTXISFlagUntilTimeout+0x86>
  while (__HAL_I2C_GET_FLAG(hi2c, I2C_FLAG_TXIS) == RESET)
 80012ac:	68fb      	ldr	r3, [r7, #12]
 80012ae:	681b      	ldr	r3, [r3, #0]
 80012b0:	699b      	ldr	r3, [r3, #24]
 80012b2:	f003 0302 	and.w	r3, r3, #2
 80012b6:	2b02      	cmp	r3, #2
 80012b8:	d1c4      	bne.n	8001244 <I2C_WaitOnTXISFlagUntilTimeout+0xe>
        }
      }
    }
  }
  return HAL_OK;
 80012ba:	2300      	movs	r3, #0
}
 80012bc:	4618      	mov	r0, r3
 80012be:	3710      	adds	r7, #16
 80012c0:	46bd      	mov	sp, r7
 80012c2:	bd80      	pop	{r7, pc}

080012c4 <I2C_WaitOnSTOPFlagUntilTimeout>:
  * @param  Tickstart Tick start value
  * @retval HAL status
  */
static HAL_StatusTypeDef I2C_WaitOnSTOPFlagUntilTimeout(I2C_HandleTypeDef *hi2c, uint32_t Timeout,
                                                        uint32_t Tickstart)
{
 80012c4:	b580      	push	{r7, lr}
 80012c6:	b084      	sub	sp, #16
 80012c8:	af00      	add	r7, sp, #0
 80012ca:	60f8      	str	r0, [r7, #12]
 80012cc:	60b9      	str	r1, [r7, #8]
 80012ce:	607a      	str	r2, [r7, #4]
  while (__HAL_I2C_GET_FLAG(hi2c, I2C_FLAG_STOPF) == RESET)
 80012d0:	e02f      	b.n	8001332 <I2C_WaitOnSTOPFlagUntilTimeout+0x6e>
  {
    /* Check if an error is detected */
    if (I2C_IsErrorOccurred(hi2c, Timeout, Tickstart) != HAL_OK)
 80012d2:	687a      	ldr	r2, [r7, #4]
 80012d4:	68b9      	ldr	r1, [r7, #8]
 80012d6:	68f8      	ldr	r0, [r7, #12]
 80012d8:	f000 f838 	bl	800134c <I2C_IsErrorOccurred>
 80012dc:	4603      	mov	r3, r0
 80012de:	2b00      	cmp	r3, #0
 80012e0:	d001      	beq.n	80012e6 <I2C_WaitOnSTOPFlagUntilTimeout+0x22>
    {
      return HAL_ERROR;
 80012e2:	2301      	movs	r3, #1
 80012e4:	e02d      	b.n	8001342 <I2C_WaitOnSTOPFlagUntilTimeout+0x7e>
    }

    /* Check for the Timeout */
    if (((HAL_GetTick() - Tickstart) > Timeout) || (Timeout == 0U))
 80012e6:	f7ff fb45 	bl	8000974 <HAL_GetTick>
 80012ea:	4602      	mov	r2, r0
 80012ec:	687b      	ldr	r3, [r7, #4]
 80012ee:	1ad3      	subs	r3, r2, r3
 80012f0:	68ba      	ldr	r2, [r7, #8]
 80012f2:	429a      	cmp	r2, r3
 80012f4:	d302      	bcc.n	80012fc <I2C_WaitOnSTOPFlagUntilTimeout+0x38>
 80012f6:	68bb      	ldr	r3, [r7, #8]
 80012f8:	2b00      	cmp	r3, #0
 80012fa:	d11a      	bne.n	8001332 <I2C_WaitOnSTOPFlagUntilTimeout+0x6e>
    {
      if (__HAL_I2C_GET_FLAG(hi2c, I2C_FLAG_STOPF) == RESET)
 80012fc:	68fb      	ldr	r3, [r7, #12]
 80012fe:	681b      	ldr	r3, [r3, #0]
 8001300:	699b      	ldr	r3, [r3, #24]
 8001302:	f003 0320 	and.w	r3, r3, #32
 8001306:	2b20      	cmp	r3, #32
 8001308:	d013      	beq.n	8001332 <I2C_WaitOnSTOPFlagUntilTimeout+0x6e>
      {
        hi2c->ErrorCode |= HAL_I2C_ERROR_TIMEOUT;
 800130a:	68fb      	ldr	r3, [r7, #12]
 800130c:	6c5b      	ldr	r3, [r3, #68]	@ 0x44
 800130e:	f043 0220 	orr.w	r2, r3, #32
 8001312:	68fb      	ldr	r3, [r7, #12]
 8001314:	645a      	str	r2, [r3, #68]	@ 0x44
        hi2c->State = HAL_I2C_STATE_READY;
 8001316:	68fb      	ldr	r3, [r7, #12]
 8001318:	2220      	movs	r2, #32
 800131a:	f883 2041 	strb.w	r2, [r3, #65]	@ 0x41
        hi2c->Mode = HAL_I2C_MODE_NONE;
 800131e:	68fb      	ldr	r3, [r7, #12]
 8001320:	2200      	movs	r2, #0
 8001322:	f883 2042 	strb.w	r2, [r3, #66]	@ 0x42

        /* Process Unlocked */
        __HAL_UNLOCK(hi2c);
 8001326:	68fb      	ldr	r3, [r7, #12]
 8001328:	2200      	movs	r2, #0
 800132a:	f883 2040 	strb.w	r2, [r3, #64]	@ 0x40

        return HAL_ERROR;
 800132e:	2301      	movs	r3, #1
 8001330:	e007      	b.n	8001342 <I2C_WaitOnSTOPFlagUntilTimeout+0x7e>
  while (__HAL_I2C_GET_FLAG(hi2c, I2C_FLAG_STOPF) == RESET)
 8001332:	68fb      	ldr	r3, [r7, #12]
 8001334:	681b      	ldr	r3, [r3, #0]
 8001336:	699b      	ldr	r3, [r3, #24]
 8001338:	f003 0320 	and.w	r3, r3, #32
 800133c:	2b20      	cmp	r3, #32
 800133e:	d1c8      	bne.n	80012d2 <I2C_WaitOnSTOPFlagUntilTimeout+0xe>
      }
    }
  }
  return HAL_OK;
 8001340:	2300      	movs	r3, #0
}
 8001342:	4618      	mov	r0, r3
 8001344:	3710      	adds	r7, #16
 8001346:	46bd      	mov	sp, r7
 8001348:	bd80      	pop	{r7, pc}
	...

0800134c <I2C_IsErrorOccurred>:
  * @param  Timeout Timeout duration
  * @param  Tickstart Tick start value
  * @retval HAL status
  */
static HAL_StatusTypeDef I2C_IsErrorOccurred(I2C_HandleTypeDef *hi2c, uint32_t Timeout, uint32_t Tickstart)
{
 800134c:	b580      	push	{r7, lr}
 800134e:	b08a      	sub	sp, #40	@ 0x28
 8001350:	af00      	add	r7, sp, #0
 8001352:	60f8      	str	r0, [r7, #12]
 8001354:	60b9      	str	r1, [r7, #8]
 8001356:	607a      	str	r2, [r7, #4]
  HAL_StatusTypeDef status = HAL_OK;
 8001358:	2300      	movs	r3, #0
 800135a:	f887 3027 	strb.w	r3, [r7, #39]	@ 0x27
  uint32_t itflag   = hi2c->Instance->ISR;
 800135e:	68fb      	ldr	r3, [r7, #12]
 8001360:	681b      	ldr	r3, [r3, #0]
 8001362:	699b      	ldr	r3, [r3, #24]
 8001364:	61bb      	str	r3, [r7, #24]
  uint32_t error_code = 0;
 8001366:	2300      	movs	r3, #0
 8001368:	623b      	str	r3, [r7, #32]
  uint32_t tickstart = Tickstart;
 800136a:	687b      	ldr	r3, [r7, #4]
 800136c:	61fb      	str	r3, [r7, #28]
  uint32_t tmp1;
  HAL_I2C_ModeTypeDef tmp2;

  if (HAL_IS_BIT_SET(itflag, I2C_FLAG_AF))
 800136e:	69bb      	ldr	r3, [r7, #24]
 8001370:	f003 0310 	and.w	r3, r3, #16
 8001374:	2b00      	cmp	r3, #0
 8001376:	d068      	beq.n	800144a <I2C_IsErrorOccurred+0xfe>
  {
    /* Clear NACKF Flag */
    __HAL_I2C_CLEAR_FLAG(hi2c, I2C_FLAG_AF);
 8001378:	68fb      	ldr	r3, [r7, #12]
 800137a:	681b      	ldr	r3, [r3, #0]
 800137c:	2210      	movs	r2, #16
 800137e:	61da      	str	r2, [r3, #28]

    /* Wait until STOP Flag is set or timeout occurred */
    /* AutoEnd should be initiate after AF */
    while ((__HAL_I2C_GET_FLAG(hi2c, I2C_FLAG_STOPF) == RESET) && (status == HAL_OK))
 8001380:	e049      	b.n	8001416 <I2C_IsErrorOccurred+0xca>
    {
      /* Check for the Timeout */
      if (Timeout != HAL_MAX_DELAY)
 8001382:	68bb      	ldr	r3, [r7, #8]
 8001384:	f1b3 3fff 	cmp.w	r3, #4294967295	@ 0xffffffff
 8001388:	d045      	beq.n	8001416 <I2C_IsErrorOccurred+0xca>
      {
        if (((HAL_GetTick() - tickstart) > Timeout) || (Timeout == 0U))
 800138a:	f7ff faf3 	bl	8000974 <HAL_GetTick>
 800138e:	4602      	mov	r2, r0
 8001390:	69fb      	ldr	r3, [r7, #28]
 8001392:	1ad3      	subs	r3, r2, r3
 8001394:	68ba      	ldr	r2, [r7, #8]
 8001396:	429a      	cmp	r2, r3
 8001398:	d302      	bcc.n	80013a0 <I2C_IsErrorOccurred+0x54>
 800139a:	68bb      	ldr	r3, [r7, #8]
 800139c:	2b00      	cmp	r3, #0
 800139e:	d13a      	bne.n	8001416 <I2C_IsErrorOccurred+0xca>
        {
          tmp1 = (uint32_t)(hi2c->Instance->CR2 & I2C_CR2_STOP);
 80013a0:	68fb      	ldr	r3, [r7, #12]
 80013a2:	681b      	ldr	r3, [r3, #0]
 80013a4:	685b      	ldr	r3, [r3, #4]
 80013a6:	f403 4380 	and.w	r3, r3, #16384	@ 0x4000
 80013aa:	617b      	str	r3, [r7, #20]
          tmp2 = hi2c->Mode;
 80013ac:	68fb      	ldr	r3, [r7, #12]
 80013ae:	f893 3042 	ldrb.w	r3, [r3, #66]	@ 0x42
 80013b2:	74fb      	strb	r3, [r7, #19]

          /* In case of I2C still busy, try to regenerate a STOP manually */
          if ((__HAL_I2C_GET_FLAG(hi2c, I2C_FLAG_BUSY) != RESET) && \
 80013b4:	68fb      	ldr	r3, [r7, #12]
 80013b6:	681b      	ldr	r3, [r3, #0]
 80013b8:	699b      	ldr	r3, [r3, #24]
 80013ba:	f403 4300 	and.w	r3, r3, #32768	@ 0x8000
 80013be:	f5b3 4f00 	cmp.w	r3, #32768	@ 0x8000
 80013c2:	d121      	bne.n	8001408 <I2C_IsErrorOccurred+0xbc>
 80013c4:	697b      	ldr	r3, [r7, #20]
 80013c6:	f5b3 4f80 	cmp.w	r3, #16384	@ 0x4000
 80013ca:	d01d      	beq.n	8001408 <I2C_IsErrorOccurred+0xbc>
              (tmp1 != I2C_CR2_STOP) && \
 80013cc:	7cfb      	ldrb	r3, [r7, #19]
 80013ce:	2b20      	cmp	r3, #32
 80013d0:	d01a      	beq.n	8001408 <I2C_IsErrorOccurred+0xbc>
              (tmp2 != HAL_I2C_MODE_SLAVE))
          {
            /* Generate Stop */
            hi2c->Instance->CR2 |= I2C_CR2_STOP;
 80013d2:	68fb      	ldr	r3, [r7, #12]
 80013d4:	681b      	ldr	r3, [r3, #0]
 80013d6:	685a      	ldr	r2, [r3, #4]
 80013d8:	68fb      	ldr	r3, [r7, #12]
 80013da:	681b      	ldr	r3, [r3, #0]
 80013dc:	f442 4280 	orr.w	r2, r2, #16384	@ 0x4000
 80013e0:	605a      	str	r2, [r3, #4]

            /* Update Tick with new reference */
            tickstart = HAL_GetTick();
 80013e2:	f7ff fac7 	bl	8000974 <HAL_GetTick>
 80013e6:	61f8      	str	r0, [r7, #28]
          }

          while (__HAL_I2C_GET_FLAG(hi2c, I2C_FLAG_STOPF) == RESET)
 80013e8:	e00e      	b.n	8001408 <I2C_IsErrorOccurred+0xbc>
          {
            /* Check for the Timeout */
            if ((HAL_GetTick() - tickstart) > I2C_TIMEOUT_STOPF)
 80013ea:	f7ff fac3 	bl	8000974 <HAL_GetTick>
 80013ee:	4602      	mov	r2, r0
 80013f0:	69fb      	ldr	r3, [r7, #28]
 80013f2:	1ad3      	subs	r3, r2, r3
 80013f4:	2b19      	cmp	r3, #25
 80013f6:	d907      	bls.n	8001408 <I2C_IsErrorOccurred+0xbc>
            {
              error_code |= HAL_I2C_ERROR_TIMEOUT;
 80013f8:	6a3b      	ldr	r3, [r7, #32]
 80013fa:	f043 0320 	orr.w	r3, r3, #32
 80013fe:	623b      	str	r3, [r7, #32]

              status = HAL_ERROR;
 8001400:	2301      	movs	r3, #1
 8001402:	f887 3027 	strb.w	r3, [r7, #39]	@ 0x27

              break;
 8001406:	e006      	b.n	8001416 <I2C_IsErrorOccurred+0xca>
          while (__HAL_I2C_GET_FLAG(hi2c, I2C_FLAG_STOPF) == RESET)
 8001408:	68fb      	ldr	r3, [r7, #12]
 800140a:	681b      	ldr	r3, [r3, #0]
 800140c:	699b      	ldr	r3, [r3, #24]
 800140e:	f003 0320 	and.w	r3, r3, #32
 8001412:	2b20      	cmp	r3, #32
 8001414:	d1e9      	bne.n	80013ea <I2C_IsErrorOccurred+0x9e>
    while ((__HAL_I2C_GET_FLAG(hi2c, I2C_FLAG_STOPF) == RESET) && (status == HAL_OK))
 8001416:	68fb      	ldr	r3, [r7, #12]
 8001418:	681b      	ldr	r3, [r3, #0]
 800141a:	699b      	ldr	r3, [r3, #24]
 800141c:	f003 0320 	and.w	r3, r3, #32
 8001420:	2b20      	cmp	r3, #32
 8001422:	d003      	beq.n	800142c <I2C_IsErrorOccurred+0xe0>
 8001424:	f897 3027 	ldrb.w	r3, [r7, #39]	@ 0x27
 8001428:	2b00      	cmp	r3, #0
 800142a:	d0aa      	beq.n	8001382 <I2C_IsErrorOccurred+0x36>
        }
      }
    }

    /* In case STOP Flag is detected, clear it */
    if (status == HAL_OK)
 800142c:	f897 3027 	ldrb.w	r3, [r7, #39]	@ 0x27
 8001430:	2b00      	cmp	r3, #0
 8001432:	d103      	bne.n	800143c <I2C_IsErrorOccurred+0xf0>
    {
      /* Clear STOP Flag */
      __HAL_I2C_CLEAR_FLAG(hi2c, I2C_FLAG_STOPF);
 8001434:	68fb      	ldr	r3, [r7, #12]
 8001436:	681b      	ldr	r3, [r3, #0]
 8001438:	2220      	movs	r2, #32
 800143a:	61da      	str	r2, [r3, #28]
    }

    error_code |= HAL_I2C_ERROR_AF;
 800143c:	6a3b      	ldr	r3, [r7, #32]
 800143e:	f043 0304 	orr.w	r3, r3, #4
 8001442:	623b      	str	r3, [r7, #32]

    status = HAL_ERROR;
 8001444:	2301      	movs	r3, #1
 8001446:	f887 3027 	strb.w	r3, [r7, #39]	@ 0x27
  }

  /* Refresh Content of Status register */
  itflag = hi2c->Instance->ISR;
 800144a:	68fb      	ldr	r3, [r7, #12]
 800144c:	681b      	ldr	r3, [r3, #0]
 800144e:	699b      	ldr	r3, [r3, #24]
 8001450:	61bb      	str	r3, [r7, #24]

  /* Then verify if an additional errors occurs */
  /* Check if a Bus error occurred */
  if (HAL_IS_BIT_SET(itflag, I2C_FLAG_BERR))
 8001452:	69bb      	ldr	r3, [r7, #24]
 8001454:	f403 7380 	and.w	r3, r3, #256	@ 0x100
 8001458:	2b00      	cmp	r3, #0
 800145a:	d00b      	beq.n	8001474 <I2C_IsErrorOccurred+0x128>
  {
    error_code |= HAL_I2C_ERROR_BERR;
 800145c:	6a3b      	ldr	r3, [r7, #32]
 800145e:	f043 0301 	orr.w	r3, r3, #1
 8001462:	623b      	str	r3, [r7, #32]

    /* Clear BERR flag */
    __HAL_I2C_CLEAR_FLAG(hi2c, I2C_FLAG_BERR);
 8001464:	68fb      	ldr	r3, [r7, #12]
 8001466:	681b      	ldr	r3, [r3, #0]
 8001468:	f44f 7280 	mov.w	r2, #256	@ 0x100
 800146c:	61da      	str	r2, [r3, #28]

    status = HAL_ERROR;
 800146e:	2301      	movs	r3, #1
 8001470:	f887 3027 	strb.w	r3, [r7, #39]	@ 0x27
  }

  /* Check if an Over-Run/Under-Run error occurred */
  if (HAL_IS_BIT_SET(itflag, I2C_FLAG_OVR))
 8001474:	69bb      	ldr	r3, [r7, #24]
 8001476:	f403 6380 	and.w	r3, r3, #1024	@ 0x400
 800147a:	2b00      	cmp	r3, #0
 800147c:	d00b      	beq.n	8001496 <I2C_IsErrorOccurred+0x14a>
  {
    error_code |= HAL_I2C_ERROR_OVR;
 800147e:	6a3b      	ldr	r3, [r7, #32]
 8001480:	f043 0308 	orr.w	r3, r3, #8
 8001484:	623b      	str	r3, [r7, #32]

    /* Clear OVR flag */
    __HAL_I2C_CLEAR_FLAG(hi2c, I2C_FLAG_OVR);
 8001486:	68fb      	ldr	r3, [r7, #12]
 8001488:	681b      	ldr	r3, [r3, #0]
 800148a:	f44f 6280 	mov.w	r2, #1024	@ 0x400
 800148e:	61da      	str	r2, [r3, #28]

    status = HAL_ERROR;
 8001490:	2301      	movs	r3, #1
 8001492:	f887 3027 	strb.w	r3, [r7, #39]	@ 0x27
  }

  /* Check if an Arbitration Loss error occurred */
  if (HAL_IS_BIT_SET(itflag, I2C_FLAG_ARLO))
 8001496:	69bb      	ldr	r3, [r7, #24]
 8001498:	f403 7300 	and.w	r3, r3, #512	@ 0x200
 800149c:	2b00      	cmp	r3, #0
 800149e:	d00b      	beq.n	80014b8 <I2C_IsErrorOccurred+0x16c>
  {
    error_code |= HAL_I2C_ERROR_ARLO;
 80014a0:	6a3b      	ldr	r3, [r7, #32]
 80014a2:	f043 0302 	orr.w	r3, r3, #2
 80014a6:	623b      	str	r3, [r7, #32]

    /* Clear ARLO flag */
    __HAL_I2C_CLEAR_FLAG(hi2c, I2C_FLAG_ARLO);
 80014a8:	68fb      	ldr	r3, [r7, #12]
 80014aa:	681b      	ldr	r3, [r3, #0]
 80014ac:	f44f 7200 	mov.w	r2, #512	@ 0x200
 80014b0:	61da      	str	r2, [r3, #28]

    status = HAL_ERROR;
 80014b2:	2301      	movs	r3, #1
 80014b4:	f887 3027 	strb.w	r3, [r7, #39]	@ 0x27
  }

  if (status != HAL_OK)
 80014b8:	f897 3027 	ldrb.w	r3, [r7, #39]	@ 0x27
 80014bc:	2b00      	cmp	r3, #0
 80014be:	d01c      	beq.n	80014fa <I2C_IsErrorOccurred+0x1ae>
  {
    /* Flush TX register */
    I2C_Flush_TXDR(hi2c);
 80014c0:	68f8      	ldr	r0, [r7, #12]
 80014c2:	f7ff fe3b 	bl	800113c <I2C_Flush_TXDR>

    /* Clear Configuration Register 2 */
    I2C_RESET_CR2(hi2c);
 80014c6:	68fb      	ldr	r3, [r7, #12]
 80014c8:	681b      	ldr	r3, [r3, #0]
 80014ca:	6859      	ldr	r1, [r3, #4]
 80014cc:	68fb      	ldr	r3, [r7, #12]
 80014ce:	681a      	ldr	r2, [r3, #0]
 80014d0:	4b0d      	ldr	r3, [pc, #52]	@ (8001508 <I2C_IsErrorOccurred+0x1bc>)
 80014d2:	400b      	ands	r3, r1
 80014d4:	6053      	str	r3, [r2, #4]

    hi2c->ErrorCode |= error_code;
 80014d6:	68fb      	ldr	r3, [r7, #12]
 80014d8:	6c5a      	ldr	r2, [r3, #68]	@ 0x44
 80014da:	6a3b      	ldr	r3, [r7, #32]
 80014dc:	431a      	orrs	r2, r3
 80014de:	68fb      	ldr	r3, [r7, #12]
 80014e0:	645a      	str	r2, [r3, #68]	@ 0x44
    hi2c->State = HAL_I2C_STATE_READY;
 80014e2:	68fb      	ldr	r3, [r7, #12]
 80014e4:	2220      	movs	r2, #32
 80014e6:	f883 2041 	strb.w	r2, [r3, #65]	@ 0x41
    hi2c->Mode = HAL_I2C_MODE_NONE;
 80014ea:	68fb      	ldr	r3, [r7, #12]
 80014ec:	2200      	movs	r2, #0
 80014ee:	f883 2042 	strb.w	r2, [r3, #66]	@ 0x42

    /* Process Unlocked */
    __HAL_UNLOCK(hi2c);
 80014f2:	68fb      	ldr	r3, [r7, #12]
 80014f4:	2200      	movs	r2, #0
 80014f6:	f883 2040 	strb.w	r2, [r3, #64]	@ 0x40
  }

  return status;
 80014fa:	f897 3027 	ldrb.w	r3, [r7, #39]	@ 0x27
}
 80014fe:	4618      	mov	r0, r3
 8001500:	3728      	adds	r7, #40	@ 0x28
 8001502:	46bd      	mov	sp, r7
 8001504:	bd80      	pop	{r7, pc}
 8001506:	bf00      	nop
 8001508:	fe00e800 	.word	0xfe00e800

0800150c <I2C_TransferConfig>:
  *     @arg @ref I2C_GENERATE_START_WRITE Generate Restart for write request.
  * @retval None
  */
static void I2C_TransferConfig(I2C_HandleTypeDef *hi2c, uint16_t DevAddress, uint8_t Size, uint32_t Mode,
                               uint32_t Request)
{
 800150c:	b480      	push	{r7}
 800150e:	b087      	sub	sp, #28
 8001510:	af00      	add	r7, sp, #0
 8001512:	60f8      	str	r0, [r7, #12]
 8001514:	607b      	str	r3, [r7, #4]
 8001516:	460b      	mov	r3, r1
 8001518:	817b      	strh	r3, [r7, #10]
 800151a:	4613      	mov	r3, r2
 800151c:	727b      	strb	r3, [r7, #9]
  assert_param(IS_I2C_ALL_INSTANCE(hi2c->Instance));
  assert_param(IS_TRANSFER_MODE(Mode));
  assert_param(IS_TRANSFER_REQUEST(Request));

  /* Declaration of tmp to prevent undefined behavior of volatile usage */
  tmp = ((uint32_t)(((uint32_t)DevAddress & I2C_CR2_SADD) | \
 800151e:	897b      	ldrh	r3, [r7, #10]
 8001520:	f3c3 0209 	ubfx	r2, r3, #0, #10
                    (((uint32_t)Size << I2C_CR2_NBYTES_Pos) & I2C_CR2_NBYTES) | \
 8001524:	7a7b      	ldrb	r3, [r7, #9]
 8001526:	041b      	lsls	r3, r3, #16
 8001528:	f403 037f 	and.w	r3, r3, #16711680	@ 0xff0000
  tmp = ((uint32_t)(((uint32_t)DevAddress & I2C_CR2_SADD) | \
 800152c:	431a      	orrs	r2, r3
                    (((uint32_t)Size << I2C_CR2_NBYTES_Pos) & I2C_CR2_NBYTES) | \
 800152e:	687b      	ldr	r3, [r7, #4]
 8001530:	431a      	orrs	r2, r3
  tmp = ((uint32_t)(((uint32_t)DevAddress & I2C_CR2_SADD) | \
 8001532:	6a3b      	ldr	r3, [r7, #32]
 8001534:	4313      	orrs	r3, r2
 8001536:	f023 4300 	bic.w	r3, r3, #2147483648	@ 0x80000000
 800153a:	617b      	str	r3, [r7, #20]
                    (uint32_t)Mode | (uint32_t)Request) & (~0x80000000U));

  /* update CR2 register */
  MODIFY_REG(hi2c->Instance->CR2, \
 800153c:	68fb      	ldr	r3, [r7, #12]
 800153e:	681b      	ldr	r3, [r3, #0]
 8001540:	685a      	ldr	r2, [r3, #4]
 8001542:	6a3b      	ldr	r3, [r7, #32]
 8001544:	0d5b      	lsrs	r3, r3, #21
 8001546:	f403 6180 	and.w	r1, r3, #1024	@ 0x400
 800154a:	4b08      	ldr	r3, [pc, #32]	@ (800156c <I2C_TransferConfig+0x60>)
 800154c:	430b      	orrs	r3, r1
 800154e:	43db      	mvns	r3, r3
 8001550:	ea02 0103 	and.w	r1, r2, r3
 8001554:	68fb      	ldr	r3, [r7, #12]
 8001556:	681b      	ldr	r3, [r3, #0]
 8001558:	697a      	ldr	r2, [r7, #20]
 800155a:	430a      	orrs	r2, r1
 800155c:	605a      	str	r2, [r3, #4]
             ((I2C_CR2_SADD | I2C_CR2_NBYTES | I2C_CR2_RELOAD | I2C_CR2_AUTOEND | \
               (I2C_CR2_RD_WRN & (uint32_t)(Request >> (31U - I2C_CR2_RD_WRN_Pos))) | \
               I2C_CR2_START | I2C_CR2_STOP)), tmp);
}
 800155e:	bf00      	nop
 8001560:	371c      	adds	r7, #28
 8001562:	46bd      	mov	sp, r7
 8001564:	f85d 7b04 	ldr.w	r7, [sp], #4
 8001568:	4770      	bx	lr
 800156a:	bf00      	nop
 800156c:	03ff63ff 	.word	0x03ff63ff

08001570 <HAL_PWREx_ControlVoltageScaling>:
  *        cleared before returning the status. If the flag is not cleared within
  *        50 microseconds, HAL_TIMEOUT status is reported.
  * @retval HAL Status
  */
HAL_StatusTypeDef HAL_PWREx_ControlVoltageScaling(uint32_t VoltageScaling)
{
 8001570:	b480      	push	{r7}
 8001572:	b085      	sub	sp, #20
 8001574:	af00      	add	r7, sp, #0
 8001576:	6078      	str	r0, [r7, #4]
  uint32_t wait_loop_index;

  assert_param(IS_PWR_VOLTAGE_SCALING_RANGE(VoltageScaling));

  if (VoltageScaling == PWR_REGULATOR_VOLTAGE_SCALE1_BOOST)
 8001578:	687b      	ldr	r3, [r7, #4]
 800157a:	2b00      	cmp	r3, #0
 800157c:	d141      	bne.n	8001602 <HAL_PWREx_ControlVoltageScaling+0x92>
  {
    /* If current range is range 2 */
    if (READ_BIT(PWR->CR1, PWR_CR1_VOS) == PWR_REGULATOR_VOLTAGE_SCALE2)
 800157e:	4b4b      	ldr	r3, [pc, #300]	@ (80016ac <HAL_PWREx_ControlVoltageScaling+0x13c>)
 8001580:	681b      	ldr	r3, [r3, #0]
 8001582:	f403 63c0 	and.w	r3, r3, #1536	@ 0x600
 8001586:	f5b3 6f80 	cmp.w	r3, #1024	@ 0x400
 800158a:	d131      	bne.n	80015f0 <HAL_PWREx_ControlVoltageScaling+0x80>
    {
      /* Make sure Range 1 Boost is enabled */
      CLEAR_BIT(PWR->CR5, PWR_CR5_R1MODE);
 800158c:	4b47      	ldr	r3, [pc, #284]	@ (80016ac <HAL_PWREx_ControlVoltageScaling+0x13c>)
 800158e:	f8d3 3080 	ldr.w	r3, [r3, #128]	@ 0x80
 8001592:	4a46      	ldr	r2, [pc, #280]	@ (80016ac <HAL_PWREx_ControlVoltageScaling+0x13c>)
 8001594:	f423 7380 	bic.w	r3, r3, #256	@ 0x100
 8001598:	f8c2 3080 	str.w	r3, [r2, #128]	@ 0x80

      /* Set Range 1 */
      MODIFY_REG(PWR->CR1, PWR_CR1_VOS, PWR_REGULATOR_VOLTAGE_SCALE1);
 800159c:	4b43      	ldr	r3, [pc, #268]	@ (80016ac <HAL_PWREx_ControlVoltageScaling+0x13c>)
 800159e:	681b      	ldr	r3, [r3, #0]
 80015a0:	f423 63c0 	bic.w	r3, r3, #1536	@ 0x600
 80015a4:	4a41      	ldr	r2, [pc, #260]	@ (80016ac <HAL_PWREx_ControlVoltageScaling+0x13c>)
 80015a6:	f443 7300 	orr.w	r3, r3, #512	@ 0x200
 80015aa:	6013      	str	r3, [r2, #0]

      /* Wait until VOSF is cleared */
      wait_loop_index = ((PWR_FLAG_SETTING_DELAY_US * SystemCoreClock) / 1000000U) + 1U;
 80015ac:	4b40      	ldr	r3, [pc, #256]	@ (80016b0 <HAL_PWREx_ControlVoltageScaling+0x140>)
 80015ae:	681b      	ldr	r3, [r3, #0]
 80015b0:	2232      	movs	r2, #50	@ 0x32
 80015b2:	fb02 f303 	mul.w	r3, r2, r3
 80015b6:	4a3f      	ldr	r2, [pc, #252]	@ (80016b4 <HAL_PWREx_ControlVoltageScaling+0x144>)
 80015b8:	fba2 2303 	umull	r2, r3, r2, r3
 80015bc:	0c9b      	lsrs	r3, r3, #18
 80015be:	3301      	adds	r3, #1
 80015c0:	60fb      	str	r3, [r7, #12]
      while ((HAL_IS_BIT_SET(PWR->SR2, PWR_SR2_VOSF)) && (wait_loop_index != 0U))
 80015c2:	e002      	b.n	80015ca <HAL_PWREx_ControlVoltageScaling+0x5a>
      {
        wait_loop_index--;
 80015c4:	68fb      	ldr	r3, [r7, #12]
 80015c6:	3b01      	subs	r3, #1
 80015c8:	60fb      	str	r3, [r7, #12]
      while ((HAL_IS_BIT_SET(PWR->SR2, PWR_SR2_VOSF)) && (wait_loop_index != 0U))
 80015ca:	4b38      	ldr	r3, [pc, #224]	@ (80016ac <HAL_PWREx_ControlVoltageScaling+0x13c>)
 80015cc:	695b      	ldr	r3, [r3, #20]
 80015ce:	f403 6380 	and.w	r3, r3, #1024	@ 0x400
 80015d2:	f5b3 6f80 	cmp.w	r3, #1024	@ 0x400
 80015d6:	d102      	bne.n	80015de <HAL_PWREx_ControlVoltageScaling+0x6e>
 80015d8:	68fb      	ldr	r3, [r7, #12]
 80015da:	2b00      	cmp	r3, #0
 80015dc:	d1f2      	bne.n	80015c4 <HAL_PWREx_ControlVoltageScaling+0x54>
      }
      if (HAL_IS_BIT_SET(PWR->SR2, PWR_SR2_VOSF))
 80015de:	4b33      	ldr	r3, [pc, #204]	@ (80016ac <HAL_PWREx_ControlVoltageScaling+0x13c>)
 80015e0:	695b      	ldr	r3, [r3, #20]
 80015e2:	f403 6380 	and.w	r3, r3, #1024	@ 0x400
 80015e6:	f5b3 6f80 	cmp.w	r3, #1024	@ 0x400
 80015ea:	d158      	bne.n	800169e <HAL_PWREx_ControlVoltageScaling+0x12e>
      {
        return HAL_TIMEOUT;
 80015ec:	2303      	movs	r3, #3
 80015ee:	e057      	b.n	80016a0 <HAL_PWREx_ControlVoltageScaling+0x130>
    }
    /* If current range is range 1 normal or boost mode */
    else
    {
      /* Enable Range 1 Boost (no issue if bit already reset) */
      CLEAR_BIT(PWR->CR5, PWR_CR5_R1MODE);
 80015f0:	4b2e      	ldr	r3, [pc, #184]	@ (80016ac <HAL_PWREx_ControlVoltageScaling+0x13c>)
 80015f2:	f8d3 3080 	ldr.w	r3, [r3, #128]	@ 0x80
 80015f6:	4a2d      	ldr	r2, [pc, #180]	@ (80016ac <HAL_PWREx_ControlVoltageScaling+0x13c>)
 80015f8:	f423 7380 	bic.w	r3, r3, #256	@ 0x100
 80015fc:	f8c2 3080 	str.w	r3, [r2, #128]	@ 0x80
 8001600:	e04d      	b.n	800169e <HAL_PWREx_ControlVoltageScaling+0x12e>
    }
  }
  else if (VoltageScaling == PWR_REGULATOR_VOLTAGE_SCALE1)
 8001602:	687b      	ldr	r3, [r7, #4]
 8001604:	f5b3 7f00 	cmp.w	r3, #512	@ 0x200
 8001608:	d141      	bne.n	800168e <HAL_PWREx_ControlVoltageScaling+0x11e>
  {
    /* If current range is range 2 */
    if (READ_BIT(PWR->CR1, PWR_CR1_VOS) == PWR_REGULATOR_VOLTAGE_SCALE2)
 800160a:	4b28      	ldr	r3, [pc, #160]	@ (80016ac <HAL_PWREx_ControlVoltageScaling+0x13c>)
 800160c:	681b      	ldr	r3, [r3, #0]
 800160e:	f403 63c0 	and.w	r3, r3, #1536	@ 0x600
 8001612:	f5b3 6f80 	cmp.w	r3, #1024	@ 0x400
 8001616:	d131      	bne.n	800167c <HAL_PWREx_ControlVoltageScaling+0x10c>
    {
      /* Make sure Range 1 Boost is disabled */
      SET_BIT(PWR->CR5, PWR_CR5_R1MODE);
 8001618:	4b24      	ldr	r3, [pc, #144]	@ (80016ac <HAL_PWREx_ControlVoltageScaling+0x13c>)
 800161a:	f8d3 3080 	ldr.w	r3, [r3, #128]	@ 0x80
 800161e:	4a23      	ldr	r2, [pc, #140]	@ (80016ac <HAL_PWREx_ControlVoltageScaling+0x13c>)
 8001620:	f443 7380 	orr.w	r3, r3, #256	@ 0x100
 8001624:	f8c2 3080 	str.w	r3, [r2, #128]	@ 0x80

      /* Set Range 1 */
      MODIFY_REG(PWR->CR1, PWR_CR1_VOS, PWR_REGULATOR_VOLTAGE_SCALE1);
 8001628:	4b20      	ldr	r3, [pc, #128]	@ (80016ac <HAL_PWREx_ControlVoltageScaling+0x13c>)
 800162a:	681b      	ldr	r3, [r3, #0]
 800162c:	f423 63c0 	bic.w	r3, r3, #1536	@ 0x600
 8001630:	4a1e      	ldr	r2, [pc, #120]	@ (80016ac <HAL_PWREx_ControlVoltageScaling+0x13c>)
 8001632:	f443 7300 	orr.w	r3, r3, #512	@ 0x200
 8001636:	6013      	str	r3, [r2, #0]

      /* Wait until VOSF is cleared */
      wait_loop_index = ((PWR_FLAG_SETTING_DELAY_US * SystemCoreClock) / 1000000U) + 1U;
 8001638:	4b1d      	ldr	r3, [pc, #116]	@ (80016b0 <HAL_PWREx_ControlVoltageScaling+0x140>)
 800163a:	681b      	ldr	r3, [r3, #0]
 800163c:	2232      	movs	r2, #50	@ 0x32
 800163e:	fb02 f303 	mul.w	r3, r2, r3
 8001642:	4a1c      	ldr	r2, [pc, #112]	@ (80016b4 <HAL_PWREx_ControlVoltageScaling+0x144>)
 8001644:	fba2 2303 	umull	r2, r3, r2, r3
 8001648:	0c9b      	lsrs	r3, r3, #18
 800164a:	3301      	adds	r3, #1
 800164c:	60fb      	str	r3, [r7, #12]
      while ((HAL_IS_BIT_SET(PWR->SR2, PWR_SR2_VOSF)) && (wait_loop_index != 0U))
 800164e:	e002      	b.n	8001656 <HAL_PWREx_ControlVoltageScaling+0xe6>
      {
        wait_loop_index--;
 8001650:	68fb      	ldr	r3, [r7, #12]
 8001652:	3b01      	subs	r3, #1
 8001654:	60fb      	str	r3, [r7, #12]
      while ((HAL_IS_BIT_SET(PWR->SR2, PWR_SR2_VOSF)) && (wait_loop_index != 0U))
 8001656:	4b15      	ldr	r3, [pc, #84]	@ (80016ac <HAL_PWREx_ControlVoltageScaling+0x13c>)
 8001658:	695b      	ldr	r3, [r3, #20]
 800165a:	f403 6380 	and.w	r3, r3, #1024	@ 0x400
 800165e:	f5b3 6f80 	cmp.w	r3, #1024	@ 0x400
 8001662:	d102      	bne.n	800166a <HAL_PWREx_ControlVoltageScaling+0xfa>
 8001664:	68fb      	ldr	r3, [r7, #12]
 8001666:	2b00      	cmp	r3, #0
 8001668:	d1f2      	bne.n	8001650 <HAL_PWREx_ControlVoltageScaling+0xe0>
      }
      if (HAL_IS_BIT_SET(PWR->SR2, PWR_SR2_VOSF))
 800166a:	4b10      	ldr	r3, [pc, #64]	@ (80016ac <HAL_PWREx_ControlVoltageScaling+0x13c>)
 800166c:	695b      	ldr	r3, [r3, #20]
 800166e:	f403 6380 	and.w	r3, r3, #1024	@ 0x400
 8001672:	f5b3 6f80 	cmp.w	r3, #1024	@ 0x400
 8001676:	d112      	bne.n	800169e <HAL_PWREx_ControlVoltageScaling+0x12e>
      {
        return HAL_TIMEOUT;
 8001678:	2303      	movs	r3, #3
 800167a:	e011      	b.n	80016a0 <HAL_PWREx_ControlVoltageScaling+0x130>
    }
     /* If current range is range 1 normal or boost mode */
    else
    {
      /* Disable Range 1 Boost (no issue if bit already set) */
      SET_BIT(PWR->CR5, PWR_CR5_R1MODE);
 800167c:	4b0b      	ldr	r3, [pc, #44]	@ (80016ac <HAL_PWREx_ControlVoltageScaling+0x13c>)
 800167e:	f8d3 3080 	ldr.w	r3, [r3, #128]	@ 0x80
 8001682:	4a0a      	ldr	r2, [pc, #40]	@ (80016ac <HAL_PWREx_ControlVoltageScaling+0x13c>)
 8001684:	f443 7380 	orr.w	r3, r3, #256	@ 0x100
 8001688:	f8c2 3080 	str.w	r3, [r2, #128]	@ 0x80
 800168c:	e007      	b.n	800169e <HAL_PWREx_ControlVoltageScaling+0x12e>
    }
  }
  else
  {
    /* Set Range 2 */
    MODIFY_REG(PWR->CR1, PWR_CR1_VOS, PWR_REGULATOR_VOLTAGE_SCALE2);
 800168e:	4b07      	ldr	r3, [pc, #28]	@ (80016ac <HAL_PWREx_ControlVoltageScaling+0x13c>)
 8001690:	681b      	ldr	r3, [r3, #0]
 8001692:	f423 63c0 	bic.w	r3, r3, #1536	@ 0x600
 8001696:	4a05      	ldr	r2, [pc, #20]	@ (80016ac <HAL_PWREx_ControlVoltageScaling+0x13c>)
 8001698:	f443 6380 	orr.w	r3, r3, #1024	@ 0x400
 800169c:	6013      	str	r3, [r2, #0]
    /* No need to wait for VOSF to be cleared for this transition */
    /* PWR_CR5_R1MODE bit setting has no effect in Range 2        */
  }

  return HAL_OK;
 800169e:	2300      	movs	r3, #0
}
 80016a0:	4618      	mov	r0, r3
 80016a2:	3714      	adds	r7, #20
 80016a4:	46bd      	mov	sp, r7
 80016a6:	f85d 7b04 	ldr.w	r7, [sp], #4
 80016aa:	4770      	bx	lr
 80016ac:	40007000 	.word	0x40007000
 80016b0:	20000000 	.word	0x20000000
 80016b4:	431bde83 	.word	0x431bde83

080016b8 <HAL_PWREx_DisableUCPDDeadBattery>:
  *       or to hand over control to the UCPD (which should therefore be
  *       initialized before doing the disable).
  * @retval None
  */
void HAL_PWREx_DisableUCPDDeadBattery(void)
{
 80016b8:	b480      	push	{r7}
 80016ba:	af00      	add	r7, sp, #0
  /* Write 1 to disable the USB Type-C dead battery pull-down behavior */
  SET_BIT(PWR->CR3, PWR_CR3_UCPD_DBDIS);
 80016bc:	4b05      	ldr	r3, [pc, #20]	@ (80016d4 <HAL_PWREx_DisableUCPDDeadBattery+0x1c>)
 80016be:	689b      	ldr	r3, [r3, #8]
 80016c0:	4a04      	ldr	r2, [pc, #16]	@ (80016d4 <HAL_PWREx_DisableUCPDDeadBattery+0x1c>)
 80016c2:	f443 4380 	orr.w	r3, r3, #16384	@ 0x4000
 80016c6:	6093      	str	r3, [r2, #8]
}
 80016c8:	bf00      	nop
 80016ca:	46bd      	mov	sp, r7
 80016cc:	f85d 7b04 	ldr.w	r7, [sp], #4
 80016d0:	4770      	bx	lr
 80016d2:	bf00      	nop
 80016d4:	40007000 	.word	0x40007000

080016d8 <HAL_RCC_OscConfig>:
  *         supported by this macro. User should request a transition to HSE Off
  *         first and then HSE On or HSE Bypass.
  * @retval HAL status
  */
HAL_StatusTypeDef HAL_RCC_OscConfig(const RCC_OscInitTypeDef  *RCC_OscInitStruct)
{
 80016d8:	b580      	push	{r7, lr}
 80016da:	b088      	sub	sp, #32
 80016dc:	af00      	add	r7, sp, #0
 80016de:	6078      	str	r0, [r7, #4]
  uint32_t tickstart;
  uint32_t temp_sysclksrc;
  uint32_t temp_pllckcfg;

  /* Check Null pointer */
  if (RCC_OscInitStruct == NULL)
 80016e0:	687b      	ldr	r3, [r7, #4]
 80016e2:	2b00      	cmp	r3, #0
 80016e4:	d101      	bne.n	80016ea <HAL_RCC_OscConfig+0x12>
  {
    return HAL_ERROR;
 80016e6:	2301      	movs	r3, #1
 80016e8:	e2fe      	b.n	8001ce8 <HAL_RCC_OscConfig+0x610>

  /* Check the parameters */
  assert_param(IS_RCC_OSCILLATORTYPE(RCC_OscInitStruct->OscillatorType));

  /*------------------------------- HSE Configuration ------------------------*/
  if (((RCC_OscInitStruct->OscillatorType) & RCC_OSCILLATORTYPE_HSE) == RCC_OSCILLATORTYPE_HSE)
 80016ea:	687b      	ldr	r3, [r7, #4]
 80016ec:	681b      	ldr	r3, [r3, #0]
 80016ee:	f003 0301 	and.w	r3, r3, #1
 80016f2:	2b00      	cmp	r3, #0
 80016f4:	d075      	beq.n	80017e2 <HAL_RCC_OscConfig+0x10a>
  {
    /* Check the parameters */
    assert_param(IS_RCC_HSE(RCC_OscInitStruct->HSEState));

    temp_sysclksrc = __HAL_RCC_GET_SYSCLK_SOURCE();
 80016f6:	4b97      	ldr	r3, [pc, #604]	@ (8001954 <HAL_RCC_OscConfig+0x27c>)
 80016f8:	689b      	ldr	r3, [r3, #8]
 80016fa:	f003 030c 	and.w	r3, r3, #12
 80016fe:	61bb      	str	r3, [r7, #24]
    temp_pllckcfg = __HAL_RCC_GET_PLL_OSCSOURCE();
 8001700:	4b94      	ldr	r3, [pc, #592]	@ (8001954 <HAL_RCC_OscConfig+0x27c>)
 8001702:	68db      	ldr	r3, [r3, #12]
 8001704:	f003 0303 	and.w	r3, r3, #3
 8001708:	617b      	str	r3, [r7, #20]

    /* When the HSE is used as system clock or clock source for PLL in these cases it is not allowed to be disabled */
    if (((temp_sysclksrc == RCC_CFGR_SWS_PLL) && (temp_pllckcfg == RCC_PLLSOURCE_HSE)) || (temp_sysclksrc == RCC_CFGR_SWS_HSE))
 800170a:	69bb      	ldr	r3, [r7, #24]
 800170c:	2b0c      	cmp	r3, #12
 800170e:	d102      	bne.n	8001716 <HAL_RCC_OscConfig+0x3e>
 8001710:	697b      	ldr	r3, [r7, #20]
 8001712:	2b03      	cmp	r3, #3
 8001714:	d002      	beq.n	800171c <HAL_RCC_OscConfig+0x44>
 8001716:	69bb      	ldr	r3, [r7, #24]
 8001718:	2b08      	cmp	r3, #8
 800171a:	d10b      	bne.n	8001734 <HAL_RCC_OscConfig+0x5c>
    {
      if ((READ_BIT(RCC->CR, RCC_CR_HSERDY) != 0U) && (RCC_OscInitStruct->HSEState == RCC_HSE_OFF))
 800171c:	4b8d      	ldr	r3, [pc, #564]	@ (8001954 <HAL_RCC_OscConfig+0x27c>)
 800171e:	681b      	ldr	r3, [r3, #0]
 8001720:	f403 3300 	and.w	r3, r3, #131072	@ 0x20000
 8001724:	2b00      	cmp	r3, #0
 8001726:	d05b      	beq.n	80017e0 <HAL_RCC_OscConfig+0x108>
 8001728:	687b      	ldr	r3, [r7, #4]
 800172a:	685b      	ldr	r3, [r3, #4]
 800172c:	2b00      	cmp	r3, #0
 800172e:	d157      	bne.n	80017e0 <HAL_RCC_OscConfig+0x108>
      {
        return HAL_ERROR;
 8001730:	2301      	movs	r3, #1
 8001732:	e2d9      	b.n	8001ce8 <HAL_RCC_OscConfig+0x610>
      }
    }
    else
    {
      /* Set the new HSE configuration ---------------------------------------*/
      __HAL_RCC_HSE_CONFIG(RCC_OscInitStruct->HSEState);
 8001734:	687b      	ldr	r3, [r7, #4]
 8001736:	685b      	ldr	r3, [r3, #4]
 8001738:	f5b3 3f80 	cmp.w	r3, #65536	@ 0x10000
 800173c:	d106      	bne.n	800174c <HAL_RCC_OscConfig+0x74>
 800173e:	4b85      	ldr	r3, [pc, #532]	@ (8001954 <HAL_RCC_OscConfig+0x27c>)
 8001740:	681b      	ldr	r3, [r3, #0]
 8001742:	4a84      	ldr	r2, [pc, #528]	@ (8001954 <HAL_RCC_OscConfig+0x27c>)
 8001744:	f443 3380 	orr.w	r3, r3, #65536	@ 0x10000
 8001748:	6013      	str	r3, [r2, #0]
 800174a:	e01d      	b.n	8001788 <HAL_RCC_OscConfig+0xb0>
 800174c:	687b      	ldr	r3, [r7, #4]
 800174e:	685b      	ldr	r3, [r3, #4]
 8001750:	f5b3 2fa0 	cmp.w	r3, #327680	@ 0x50000
 8001754:	d10c      	bne.n	8001770 <HAL_RCC_OscConfig+0x98>
 8001756:	4b7f      	ldr	r3, [pc, #508]	@ (8001954 <HAL_RCC_OscConfig+0x27c>)
 8001758:	681b      	ldr	r3, [r3, #0]
 800175a:	4a7e      	ldr	r2, [pc, #504]	@ (8001954 <HAL_RCC_OscConfig+0x27c>)
 800175c:	f443 2380 	orr.w	r3, r3, #262144	@ 0x40000
 8001760:	6013      	str	r3, [r2, #0]
 8001762:	4b7c      	ldr	r3, [pc, #496]	@ (8001954 <HAL_RCC_OscConfig+0x27c>)
 8001764:	681b      	ldr	r3, [r3, #0]
 8001766:	4a7b      	ldr	r2, [pc, #492]	@ (8001954 <HAL_RCC_OscConfig+0x27c>)
 8001768:	f443 3380 	orr.w	r3, r3, #65536	@ 0x10000
 800176c:	6013      	str	r3, [r2, #0]
 800176e:	e00b      	b.n	8001788 <HAL_RCC_OscConfig+0xb0>
 8001770:	4b78      	ldr	r3, [pc, #480]	@ (8001954 <HAL_RCC_OscConfig+0x27c>)
 8001772:	681b      	ldr	r3, [r3, #0]
 8001774:	4a77      	ldr	r2, [pc, #476]	@ (8001954 <HAL_RCC_OscConfig+0x27c>)
 8001776:	f423 3380 	bic.w	r3, r3, #65536	@ 0x10000
 800177a:	6013      	str	r3, [r2, #0]
 800177c:	4b75      	ldr	r3, [pc, #468]	@ (8001954 <HAL_RCC_OscConfig+0x27c>)
 800177e:	681b      	ldr	r3, [r3, #0]
 8001780:	4a74      	ldr	r2, [pc, #464]	@ (8001954 <HAL_RCC_OscConfig+0x27c>)
 8001782:	f423 2380 	bic.w	r3, r3, #262144	@ 0x40000
 8001786:	6013      	str	r3, [r2, #0]

      /* Check the HSE State */
      if (RCC_OscInitStruct->HSEState != RCC_HSE_OFF)
 8001788:	687b      	ldr	r3, [r7, #4]
 800178a:	685b      	ldr	r3, [r3, #4]
 800178c:	2b00      	cmp	r3, #0
 800178e:	d013      	beq.n	80017b8 <HAL_RCC_OscConfig+0xe0>
      {
        /* Get Start Tick*/
        tickstart = HAL_GetTick();
 8001790:	f7ff f8f0 	bl	8000974 <HAL_GetTick>
 8001794:	6138      	str	r0, [r7, #16]

        /* Wait till HSE is ready */
        while (READ_BIT(RCC->CR, RCC_CR_HSERDY) == 0U)
 8001796:	e008      	b.n	80017aa <HAL_RCC_OscConfig+0xd2>
        {
          if ((HAL_GetTick() - tickstart) > HSE_TIMEOUT_VALUE)
 8001798:	f7ff f8ec 	bl	8000974 <HAL_GetTick>
 800179c:	4602      	mov	r2, r0
 800179e:	693b      	ldr	r3, [r7, #16]
 80017a0:	1ad3      	subs	r3, r2, r3
 80017a2:	2b64      	cmp	r3, #100	@ 0x64
 80017a4:	d901      	bls.n	80017aa <HAL_RCC_OscConfig+0xd2>
          {
            return HAL_TIMEOUT;
 80017a6:	2303      	movs	r3, #3
 80017a8:	e29e      	b.n	8001ce8 <HAL_RCC_OscConfig+0x610>
        while (READ_BIT(RCC->CR, RCC_CR_HSERDY) == 0U)
 80017aa:	4b6a      	ldr	r3, [pc, #424]	@ (8001954 <HAL_RCC_OscConfig+0x27c>)
 80017ac:	681b      	ldr	r3, [r3, #0]
 80017ae:	f403 3300 	and.w	r3, r3, #131072	@ 0x20000
 80017b2:	2b00      	cmp	r3, #0
 80017b4:	d0f0      	beq.n	8001798 <HAL_RCC_OscConfig+0xc0>
 80017b6:	e014      	b.n	80017e2 <HAL_RCC_OscConfig+0x10a>
        }
      }
      else
      {
        /* Get Start Tick*/
        tickstart = HAL_GetTick();
 80017b8:	f7ff f8dc 	bl	8000974 <HAL_GetTick>
 80017bc:	6138      	str	r0, [r7, #16]

        /* Wait till HSE is disabled */
        while (READ_BIT(RCC->CR, RCC_CR_HSERDY) != 0U)
 80017be:	e008      	b.n	80017d2 <HAL_RCC_OscConfig+0xfa>
        {
          if ((HAL_GetTick() - tickstart) > HSE_TIMEOUT_VALUE)
 80017c0:	f7ff f8d8 	bl	8000974 <HAL_GetTick>
 80017c4:	4602      	mov	r2, r0
 80017c6:	693b      	ldr	r3, [r7, #16]
 80017c8:	1ad3      	subs	r3, r2, r3
 80017ca:	2b64      	cmp	r3, #100	@ 0x64
 80017cc:	d901      	bls.n	80017d2 <HAL_RCC_OscConfig+0xfa>
          {
            return HAL_TIMEOUT;
 80017ce:	2303      	movs	r3, #3
 80017d0:	e28a      	b.n	8001ce8 <HAL_RCC_OscConfig+0x610>
        while (READ_BIT(RCC->CR, RCC_CR_HSERDY) != 0U)
 80017d2:	4b60      	ldr	r3, [pc, #384]	@ (8001954 <HAL_RCC_OscConfig+0x27c>)
 80017d4:	681b      	ldr	r3, [r3, #0]
 80017d6:	f403 3300 	and.w	r3, r3, #131072	@ 0x20000
 80017da:	2b00      	cmp	r3, #0
 80017dc:	d1f0      	bne.n	80017c0 <HAL_RCC_OscConfig+0xe8>
 80017de:	e000      	b.n	80017e2 <HAL_RCC_OscConfig+0x10a>
      if ((READ_BIT(RCC->CR, RCC_CR_HSERDY) != 0U) && (RCC_OscInitStruct->HSEState == RCC_HSE_OFF))
 80017e0:	bf00      	nop
        }
      }
    }
  }
  /*----------------------------- HSI Configuration --------------------------*/
  if (((RCC_OscInitStruct->OscillatorType) & RCC_OSCILLATORTYPE_HSI) == RCC_OSCILLATORTYPE_HSI)
 80017e2:	687b      	ldr	r3, [r7, #4]
 80017e4:	681b      	ldr	r3, [r3, #0]
 80017e6:	f003 0302 	and.w	r3, r3, #2
 80017ea:	2b00      	cmp	r3, #0
 80017ec:	d075      	beq.n	80018da <HAL_RCC_OscConfig+0x202>
    /* Check the parameters */
    assert_param(IS_RCC_HSI(RCC_OscInitStruct->HSIState));
    assert_param(IS_RCC_HSI_CALIBRATION_VALUE(RCC_OscInitStruct->HSICalibrationValue));

    /* Check if HSI is used as system clock or as PLL source when PLL is selected as system clock */
    temp_sysclksrc = __HAL_RCC_GET_SYSCLK_SOURCE();
 80017ee:	4b59      	ldr	r3, [pc, #356]	@ (8001954 <HAL_RCC_OscConfig+0x27c>)
 80017f0:	689b      	ldr	r3, [r3, #8]
 80017f2:	f003 030c 	and.w	r3, r3, #12
 80017f6:	61bb      	str	r3, [r7, #24]
    temp_pllckcfg = __HAL_RCC_GET_PLL_OSCSOURCE();
 80017f8:	4b56      	ldr	r3, [pc, #344]	@ (8001954 <HAL_RCC_OscConfig+0x27c>)
 80017fa:	68db      	ldr	r3, [r3, #12]
 80017fc:	f003 0303 	and.w	r3, r3, #3
 8001800:	617b      	str	r3, [r7, #20]
    if (((temp_sysclksrc == RCC_CFGR_SWS_PLL) && (temp_pllckcfg == RCC_PLLSOURCE_HSI)) || (temp_sysclksrc == RCC_CFGR_SWS_HSI))
 8001802:	69bb      	ldr	r3, [r7, #24]
 8001804:	2b0c      	cmp	r3, #12
 8001806:	d102      	bne.n	800180e <HAL_RCC_OscConfig+0x136>
 8001808:	697b      	ldr	r3, [r7, #20]
 800180a:	2b02      	cmp	r3, #2
 800180c:	d002      	beq.n	8001814 <HAL_RCC_OscConfig+0x13c>
 800180e:	69bb      	ldr	r3, [r7, #24]
 8001810:	2b04      	cmp	r3, #4
 8001812:	d11f      	bne.n	8001854 <HAL_RCC_OscConfig+0x17c>
    {
      /* When HSI is used as system clock it will not be disabled */
      if ((READ_BIT(RCC->CR, RCC_CR_HSIRDY) != 0U) && (RCC_OscInitStruct->HSIState == RCC_HSI_OFF))
 8001814:	4b4f      	ldr	r3, [pc, #316]	@ (8001954 <HAL_RCC_OscConfig+0x27c>)
 8001816:	681b      	ldr	r3, [r3, #0]
 8001818:	f403 6380 	and.w	r3, r3, #1024	@ 0x400
 800181c:	2b00      	cmp	r3, #0
 800181e:	d005      	beq.n	800182c <HAL_RCC_OscConfig+0x154>
 8001820:	687b      	ldr	r3, [r7, #4]
 8001822:	68db      	ldr	r3, [r3, #12]
 8001824:	2b00      	cmp	r3, #0
 8001826:	d101      	bne.n	800182c <HAL_RCC_OscConfig+0x154>
      {
        return HAL_ERROR;
 8001828:	2301      	movs	r3, #1
 800182a:	e25d      	b.n	8001ce8 <HAL_RCC_OscConfig+0x610>
      }
      /* Otherwise, just the calibration is allowed */
      else
      {
        /* Adjusts the Internal High Speed oscillator (HSI) calibration value.*/
        __HAL_RCC_HSI_CALIBRATIONVALUE_ADJUST(RCC_OscInitStruct->HSICalibrationValue);
 800182c:	4b49      	ldr	r3, [pc, #292]	@ (8001954 <HAL_RCC_OscConfig+0x27c>)
 800182e:	685b      	ldr	r3, [r3, #4]
 8001830:	f023 42fe 	bic.w	r2, r3, #2130706432	@ 0x7f000000
 8001834:	687b      	ldr	r3, [r7, #4]
 8001836:	691b      	ldr	r3, [r3, #16]
 8001838:	061b      	lsls	r3, r3, #24
 800183a:	4946      	ldr	r1, [pc, #280]	@ (8001954 <HAL_RCC_OscConfig+0x27c>)
 800183c:	4313      	orrs	r3, r2
 800183e:	604b      	str	r3, [r1, #4]

        /* Adapt Systick interrupt period */
        if (HAL_InitTick(uwTickPrio) != HAL_OK)
 8001840:	4b45      	ldr	r3, [pc, #276]	@ (8001958 <HAL_RCC_OscConfig+0x280>)
 8001842:	681b      	ldr	r3, [r3, #0]
 8001844:	4618      	mov	r0, r3
 8001846:	f7ff f849 	bl	80008dc <HAL_InitTick>
 800184a:	4603      	mov	r3, r0
 800184c:	2b00      	cmp	r3, #0
 800184e:	d043      	beq.n	80018d8 <HAL_RCC_OscConfig+0x200>
        {
          return HAL_ERROR;
 8001850:	2301      	movs	r3, #1
 8001852:	e249      	b.n	8001ce8 <HAL_RCC_OscConfig+0x610>
      }
    }
    else
    {
      /* Check the HSI State */
      if (RCC_OscInitStruct->HSIState != RCC_HSI_OFF)
 8001854:	687b      	ldr	r3, [r7, #4]
 8001856:	68db      	ldr	r3, [r3, #12]
 8001858:	2b00      	cmp	r3, #0
 800185a:	d023      	beq.n	80018a4 <HAL_RCC_OscConfig+0x1cc>
      {
        /* Enable the Internal High Speed oscillator (HSI). */
        __HAL_RCC_HSI_ENABLE();
 800185c:	4b3d      	ldr	r3, [pc, #244]	@ (8001954 <HAL_RCC_OscConfig+0x27c>)
 800185e:	681b      	ldr	r3, [r3, #0]
 8001860:	4a3c      	ldr	r2, [pc, #240]	@ (8001954 <HAL_RCC_OscConfig+0x27c>)
 8001862:	f443 7380 	orr.w	r3, r3, #256	@ 0x100
 8001866:	6013      	str	r3, [r2, #0]

        /* Get Start Tick*/
        tickstart = HAL_GetTick();
 8001868:	f7ff f884 	bl	8000974 <HAL_GetTick>
 800186c:	6138      	str	r0, [r7, #16]

        /* Wait till HSI is ready */
        while (READ_BIT(RCC->CR, RCC_CR_HSIRDY) == 0U)
 800186e:	e008      	b.n	8001882 <HAL_RCC_OscConfig+0x1aa>
        {
          if ((HAL_GetTick() - tickstart) > HSI_TIMEOUT_VALUE)
 8001870:	f7ff f880 	bl	8000974 <HAL_GetTick>
 8001874:	4602      	mov	r2, r0
 8001876:	693b      	ldr	r3, [r7, #16]
 8001878:	1ad3      	subs	r3, r2, r3
 800187a:	2b02      	cmp	r3, #2
 800187c:	d901      	bls.n	8001882 <HAL_RCC_OscConfig+0x1aa>
          {
            return HAL_TIMEOUT;
 800187e:	2303      	movs	r3, #3
 8001880:	e232      	b.n	8001ce8 <HAL_RCC_OscConfig+0x610>
        while (READ_BIT(RCC->CR, RCC_CR_HSIRDY) == 0U)
 8001882:	4b34      	ldr	r3, [pc, #208]	@ (8001954 <HAL_RCC_OscConfig+0x27c>)
 8001884:	681b      	ldr	r3, [r3, #0]
 8001886:	f403 6380 	and.w	r3, r3, #1024	@ 0x400
 800188a:	2b00      	cmp	r3, #0
 800188c:	d0f0      	beq.n	8001870 <HAL_RCC_OscConfig+0x198>
          }
        }

        /* Adjusts the Internal High Speed oscillator (HSI) calibration value.*/
        __HAL_RCC_HSI_CALIBRATIONVALUE_ADJUST(RCC_OscInitStruct->HSICalibrationValue);
 800188e:	4b31      	ldr	r3, [pc, #196]	@ (8001954 <HAL_RCC_OscConfig+0x27c>)
 8001890:	685b      	ldr	r3, [r3, #4]
 8001892:	f023 42fe 	bic.w	r2, r3, #2130706432	@ 0x7f000000
 8001896:	687b      	ldr	r3, [r7, #4]
 8001898:	691b      	ldr	r3, [r3, #16]
 800189a:	061b      	lsls	r3, r3, #24
 800189c:	492d      	ldr	r1, [pc, #180]	@ (8001954 <HAL_RCC_OscConfig+0x27c>)
 800189e:	4313      	orrs	r3, r2
 80018a0:	604b      	str	r3, [r1, #4]
 80018a2:	e01a      	b.n	80018da <HAL_RCC_OscConfig+0x202>
      }
      else
      {
        /* Disable the Internal High Speed oscillator (HSI). */
        __HAL_RCC_HSI_DISABLE();
 80018a4:	4b2b      	ldr	r3, [pc, #172]	@ (8001954 <HAL_RCC_OscConfig+0x27c>)
 80018a6:	681b      	ldr	r3, [r3, #0]
 80018a8:	4a2a      	ldr	r2, [pc, #168]	@ (8001954 <HAL_RCC_OscConfig+0x27c>)
 80018aa:	f423 7380 	bic.w	r3, r3, #256	@ 0x100
 80018ae:	6013      	str	r3, [r2, #0]

        /* Get Start Tick*/
        tickstart = HAL_GetTick();
 80018b0:	f7ff f860 	bl	8000974 <HAL_GetTick>
 80018b4:	6138      	str	r0, [r7, #16]

        /* Wait till HSI is disabled */
        while (READ_BIT(RCC->CR, RCC_CR_HSIRDY) != 0U)
 80018b6:	e008      	b.n	80018ca <HAL_RCC_OscConfig+0x1f2>
        {
          if ((HAL_GetTick() - tickstart) > HSI_TIMEOUT_VALUE)
 80018b8:	f7ff f85c 	bl	8000974 <HAL_GetTick>
 80018bc:	4602      	mov	r2, r0
 80018be:	693b      	ldr	r3, [r7, #16]
 80018c0:	1ad3      	subs	r3, r2, r3
 80018c2:	2b02      	cmp	r3, #2
 80018c4:	d901      	bls.n	80018ca <HAL_RCC_OscConfig+0x1f2>
          {
            return HAL_TIMEOUT;
 80018c6:	2303      	movs	r3, #3
 80018c8:	e20e      	b.n	8001ce8 <HAL_RCC_OscConfig+0x610>
        while (READ_BIT(RCC->CR, RCC_CR_HSIRDY) != 0U)
 80018ca:	4b22      	ldr	r3, [pc, #136]	@ (8001954 <HAL_RCC_OscConfig+0x27c>)
 80018cc:	681b      	ldr	r3, [r3, #0]
 80018ce:	f403 6380 	and.w	r3, r3, #1024	@ 0x400
 80018d2:	2b00      	cmp	r3, #0
 80018d4:	d1f0      	bne.n	80018b8 <HAL_RCC_OscConfig+0x1e0>
 80018d6:	e000      	b.n	80018da <HAL_RCC_OscConfig+0x202>
      if ((READ_BIT(RCC->CR, RCC_CR_HSIRDY) != 0U) && (RCC_OscInitStruct->HSIState == RCC_HSI_OFF))
 80018d8:	bf00      	nop
        }
      }
    }
  }
  /*------------------------------ LSI Configuration -------------------------*/
  if (((RCC_OscInitStruct->OscillatorType) & RCC_OSCILLATORTYPE_LSI) == RCC_OSCILLATORTYPE_LSI)
 80018da:	687b      	ldr	r3, [r7, #4]
 80018dc:	681b      	ldr	r3, [r3, #0]
 80018de:	f003 0308 	and.w	r3, r3, #8
 80018e2:	2b00      	cmp	r3, #0
 80018e4:	d041      	beq.n	800196a <HAL_RCC_OscConfig+0x292>
  {
    /* Check the parameters */
    assert_param(IS_RCC_LSI(RCC_OscInitStruct->LSIState));

    /* Check the LSI State */
    if(RCC_OscInitStruct->LSIState != RCC_LSI_OFF)
 80018e6:	687b      	ldr	r3, [r7, #4]
 80018e8:	695b      	ldr	r3, [r3, #20]
 80018ea:	2b00      	cmp	r3, #0
 80018ec:	d01c      	beq.n	8001928 <HAL_RCC_OscConfig+0x250>
    {
      /* Enable the Internal Low Speed oscillator (LSI). */
      __HAL_RCC_LSI_ENABLE();
 80018ee:	4b19      	ldr	r3, [pc, #100]	@ (8001954 <HAL_RCC_OscConfig+0x27c>)
 80018f0:	f8d3 3094 	ldr.w	r3, [r3, #148]	@ 0x94
 80018f4:	4a17      	ldr	r2, [pc, #92]	@ (8001954 <HAL_RCC_OscConfig+0x27c>)
 80018f6:	f043 0301 	orr.w	r3, r3, #1
 80018fa:	f8c2 3094 	str.w	r3, [r2, #148]	@ 0x94

      /* Get Start Tick*/
      tickstart = HAL_GetTick();
 80018fe:	f7ff f839 	bl	8000974 <HAL_GetTick>
 8001902:	6138      	str	r0, [r7, #16]

      /* Wait till LSI is ready */
      while (READ_BIT(RCC->CSR, RCC_CSR_LSIRDY) == 0U)
 8001904:	e008      	b.n	8001918 <HAL_RCC_OscConfig+0x240>
      {
        if ((HAL_GetTick() - tickstart) > LSI_TIMEOUT_VALUE)
 8001906:	f7ff f835 	bl	8000974 <HAL_GetTick>
 800190a:	4602      	mov	r2, r0
 800190c:	693b      	ldr	r3, [r7, #16]
 800190e:	1ad3      	subs	r3, r2, r3
 8001910:	2b02      	cmp	r3, #2
 8001912:	d901      	bls.n	8001918 <HAL_RCC_OscConfig+0x240>
        {
          return HAL_TIMEOUT;
 8001914:	2303      	movs	r3, #3
 8001916:	e1e7      	b.n	8001ce8 <HAL_RCC_OscConfig+0x610>
      while (READ_BIT(RCC->CSR, RCC_CSR_LSIRDY) == 0U)
 8001918:	4b0e      	ldr	r3, [pc, #56]	@ (8001954 <HAL_RCC_OscConfig+0x27c>)
 800191a:	f8d3 3094 	ldr.w	r3, [r3, #148]	@ 0x94
 800191e:	f003 0302 	and.w	r3, r3, #2
 8001922:	2b00      	cmp	r3, #0
 8001924:	d0ef      	beq.n	8001906 <HAL_RCC_OscConfig+0x22e>
 8001926:	e020      	b.n	800196a <HAL_RCC_OscConfig+0x292>
      }
    }
    else
    {
      /* Disable the Internal Low Speed oscillator (LSI). */
      __HAL_RCC_LSI_DISABLE();
 8001928:	4b0a      	ldr	r3, [pc, #40]	@ (8001954 <HAL_RCC_OscConfig+0x27c>)
 800192a:	f8d3 3094 	ldr.w	r3, [r3, #148]	@ 0x94
 800192e:	4a09      	ldr	r2, [pc, #36]	@ (8001954 <HAL_RCC_OscConfig+0x27c>)
 8001930:	f023 0301 	bic.w	r3, r3, #1
 8001934:	f8c2 3094 	str.w	r3, [r2, #148]	@ 0x94

      /* Get Start Tick*/
      tickstart = HAL_GetTick();
 8001938:	f7ff f81c 	bl	8000974 <HAL_GetTick>
 800193c:	6138      	str	r0, [r7, #16]

      /* Wait till LSI is disabled */
      while(READ_BIT(RCC->CSR, RCC_CSR_LSIRDY) != 0U)
 800193e:	e00d      	b.n	800195c <HAL_RCC_OscConfig+0x284>
      {
        if((HAL_GetTick() - tickstart) > LSI_TIMEOUT_VALUE)
 8001940:	f7ff f818 	bl	8000974 <HAL_GetTick>
 8001944:	4602      	mov	r2, r0
 8001946:	693b      	ldr	r3, [r7, #16]
 8001948:	1ad3      	subs	r3, r2, r3
 800194a:	2b02      	cmp	r3, #2
 800194c:	d906      	bls.n	800195c <HAL_RCC_OscConfig+0x284>
        {
          return HAL_TIMEOUT;
 800194e:	2303      	movs	r3, #3
 8001950:	e1ca      	b.n	8001ce8 <HAL_RCC_OscConfig+0x610>
 8001952:	bf00      	nop
 8001954:	40021000 	.word	0x40021000
 8001958:	20000004 	.word	0x20000004
      while(READ_BIT(RCC->CSR, RCC_CSR_LSIRDY) != 0U)
 800195c:	4b8c      	ldr	r3, [pc, #560]	@ (8001b90 <HAL_RCC_OscConfig+0x4b8>)
 800195e:	f8d3 3094 	ldr.w	r3, [r3, #148]	@ 0x94
 8001962:	f003 0302 	and.w	r3, r3, #2
 8001966:	2b00      	cmp	r3, #0
 8001968:	d1ea      	bne.n	8001940 <HAL_RCC_OscConfig+0x268>
        }
      }
    }
  }
  /*------------------------------ LSE Configuration -------------------------*/
  if (((RCC_OscInitStruct->OscillatorType) & RCC_OSCILLATORTYPE_LSE) == RCC_OSCILLATORTYPE_LSE)
 800196a:	687b      	ldr	r3, [r7, #4]
 800196c:	681b      	ldr	r3, [r3, #0]
 800196e:	f003 0304 	and.w	r3, r3, #4
 8001972:	2b00      	cmp	r3, #0
 8001974:	f000 80a6 	beq.w	8001ac4 <HAL_RCC_OscConfig+0x3ec>
  {
    FlagStatus       pwrclkchanged = RESET;
 8001978:	2300      	movs	r3, #0
 800197a:	77fb      	strb	r3, [r7, #31]
    /* Check the parameters */
    assert_param(IS_RCC_LSE(RCC_OscInitStruct->LSEState));

    /* Update LSE configuration in Backup Domain control register    */
    /* Requires to enable write access to Backup Domain if necessary */
    if (__HAL_RCC_PWR_IS_CLK_DISABLED() != 0U)
 800197c:	4b84      	ldr	r3, [pc, #528]	@ (8001b90 <HAL_RCC_OscConfig+0x4b8>)
 800197e:	6d9b      	ldr	r3, [r3, #88]	@ 0x58
 8001980:	f003 5380 	and.w	r3, r3, #268435456	@ 0x10000000
 8001984:	2b00      	cmp	r3, #0
 8001986:	d101      	bne.n	800198c <HAL_RCC_OscConfig+0x2b4>
 8001988:	2301      	movs	r3, #1
 800198a:	e000      	b.n	800198e <HAL_RCC_OscConfig+0x2b6>
 800198c:	2300      	movs	r3, #0
 800198e:	2b00      	cmp	r3, #0
 8001990:	d00d      	beq.n	80019ae <HAL_RCC_OscConfig+0x2d6>
    {
      __HAL_RCC_PWR_CLK_ENABLE();
 8001992:	4b7f      	ldr	r3, [pc, #508]	@ (8001b90 <HAL_RCC_OscConfig+0x4b8>)
 8001994:	6d9b      	ldr	r3, [r3, #88]	@ 0x58
 8001996:	4a7e      	ldr	r2, [pc, #504]	@ (8001b90 <HAL_RCC_OscConfig+0x4b8>)
 8001998:	f043 5380 	orr.w	r3, r3, #268435456	@ 0x10000000
 800199c:	6593      	str	r3, [r2, #88]	@ 0x58
 800199e:	4b7c      	ldr	r3, [pc, #496]	@ (8001b90 <HAL_RCC_OscConfig+0x4b8>)
 80019a0:	6d9b      	ldr	r3, [r3, #88]	@ 0x58
 80019a2:	f003 5380 	and.w	r3, r3, #268435456	@ 0x10000000
 80019a6:	60fb      	str	r3, [r7, #12]
 80019a8:	68fb      	ldr	r3, [r7, #12]
      pwrclkchanged = SET;
 80019aa:	2301      	movs	r3, #1
 80019ac:	77fb      	strb	r3, [r7, #31]
    }

    if (HAL_IS_BIT_CLR(PWR->CR1, PWR_CR1_DBP))
 80019ae:	4b79      	ldr	r3, [pc, #484]	@ (8001b94 <HAL_RCC_OscConfig+0x4bc>)
 80019b0:	681b      	ldr	r3, [r3, #0]
 80019b2:	f403 7380 	and.w	r3, r3, #256	@ 0x100
 80019b6:	2b00      	cmp	r3, #0
 80019b8:	d118      	bne.n	80019ec <HAL_RCC_OscConfig+0x314>
    {
      /* Enable write access to Backup domain */
      SET_BIT(PWR->CR1, PWR_CR1_DBP);
 80019ba:	4b76      	ldr	r3, [pc, #472]	@ (8001b94 <HAL_RCC_OscConfig+0x4bc>)
 80019bc:	681b      	ldr	r3, [r3, #0]
 80019be:	4a75      	ldr	r2, [pc, #468]	@ (8001b94 <HAL_RCC_OscConfig+0x4bc>)
 80019c0:	f443 7380 	orr.w	r3, r3, #256	@ 0x100
 80019c4:	6013      	str	r3, [r2, #0]

      /* Wait for Backup domain Write protection disable */
      tickstart = HAL_GetTick();
 80019c6:	f7fe ffd5 	bl	8000974 <HAL_GetTick>
 80019ca:	6138      	str	r0, [r7, #16]

      while (HAL_IS_BIT_CLR(PWR->CR1, PWR_CR1_DBP))
 80019cc:	e008      	b.n	80019e0 <HAL_RCC_OscConfig+0x308>
      {
        if ((HAL_GetTick() - tickstart) > RCC_DBP_TIMEOUT_VALUE)
 80019ce:	f7fe ffd1 	bl	8000974 <HAL_GetTick>
 80019d2:	4602      	mov	r2, r0
 80019d4:	693b      	ldr	r3, [r7, #16]
 80019d6:	1ad3      	subs	r3, r2, r3
 80019d8:	2b02      	cmp	r3, #2
 80019da:	d901      	bls.n	80019e0 <HAL_RCC_OscConfig+0x308>
        {
          return HAL_TIMEOUT;
 80019dc:	2303      	movs	r3, #3
 80019de:	e183      	b.n	8001ce8 <HAL_RCC_OscConfig+0x610>
      while (HAL_IS_BIT_CLR(PWR->CR1, PWR_CR1_DBP))
 80019e0:	4b6c      	ldr	r3, [pc, #432]	@ (8001b94 <HAL_RCC_OscConfig+0x4bc>)
 80019e2:	681b      	ldr	r3, [r3, #0]
 80019e4:	f403 7380 	and.w	r3, r3, #256	@ 0x100
 80019e8:	2b00      	cmp	r3, #0
 80019ea:	d0f0      	beq.n	80019ce <HAL_RCC_OscConfig+0x2f6>
        }
      }
    }

    /* Set the new LSE configuration -----------------------------------------*/
    __HAL_RCC_LSE_CONFIG(RCC_OscInitStruct->LSEState);
 80019ec:	687b      	ldr	r3, [r7, #4]
 80019ee:	689b      	ldr	r3, [r3, #8]
 80019f0:	2b01      	cmp	r3, #1
 80019f2:	d108      	bne.n	8001a06 <HAL_RCC_OscConfig+0x32e>
 80019f4:	4b66      	ldr	r3, [pc, #408]	@ (8001b90 <HAL_RCC_OscConfig+0x4b8>)
 80019f6:	f8d3 3090 	ldr.w	r3, [r3, #144]	@ 0x90
 80019fa:	4a65      	ldr	r2, [pc, #404]	@ (8001b90 <HAL_RCC_OscConfig+0x4b8>)
 80019fc:	f043 0301 	orr.w	r3, r3, #1
 8001a00:	f8c2 3090 	str.w	r3, [r2, #144]	@ 0x90
 8001a04:	e024      	b.n	8001a50 <HAL_RCC_OscConfig+0x378>
 8001a06:	687b      	ldr	r3, [r7, #4]
 8001a08:	689b      	ldr	r3, [r3, #8]
 8001a0a:	2b05      	cmp	r3, #5
 8001a0c:	d110      	bne.n	8001a30 <HAL_RCC_OscConfig+0x358>
 8001a0e:	4b60      	ldr	r3, [pc, #384]	@ (8001b90 <HAL_RCC_OscConfig+0x4b8>)
 8001a10:	f8d3 3090 	ldr.w	r3, [r3, #144]	@ 0x90
 8001a14:	4a5e      	ldr	r2, [pc, #376]	@ (8001b90 <HAL_RCC_OscConfig+0x4b8>)
 8001a16:	f043 0304 	orr.w	r3, r3, #4
 8001a1a:	f8c2 3090 	str.w	r3, [r2, #144]	@ 0x90
 8001a1e:	4b5c      	ldr	r3, [pc, #368]	@ (8001b90 <HAL_RCC_OscConfig+0x4b8>)
 8001a20:	f8d3 3090 	ldr.w	r3, [r3, #144]	@ 0x90
 8001a24:	4a5a      	ldr	r2, [pc, #360]	@ (8001b90 <HAL_RCC_OscConfig+0x4b8>)
 8001a26:	f043 0301 	orr.w	r3, r3, #1
 8001a2a:	f8c2 3090 	str.w	r3, [r2, #144]	@ 0x90
 8001a2e:	e00f      	b.n	8001a50 <HAL_RCC_OscConfig+0x378>
 8001a30:	4b57      	ldr	r3, [pc, #348]	@ (8001b90 <HAL_RCC_OscConfig+0x4b8>)
 8001a32:	f8d3 3090 	ldr.w	r3, [r3, #144]	@ 0x90
 8001a36:	4a56      	ldr	r2, [pc, #344]	@ (8001b90 <HAL_RCC_OscConfig+0x4b8>)
 8001a38:	f023 0301 	bic.w	r3, r3, #1
 8001a3c:	f8c2 3090 	str.w	r3, [r2, #144]	@ 0x90
 8001a40:	4b53      	ldr	r3, [pc, #332]	@ (8001b90 <HAL_RCC_OscConfig+0x4b8>)
 8001a42:	f8d3 3090 	ldr.w	r3, [r3, #144]	@ 0x90
 8001a46:	4a52      	ldr	r2, [pc, #328]	@ (8001b90 <HAL_RCC_OscConfig+0x4b8>)
 8001a48:	f023 0304 	bic.w	r3, r3, #4
 8001a4c:	f8c2 3090 	str.w	r3, [r2, #144]	@ 0x90

    /* Check the LSE State */
    if (RCC_OscInitStruct->LSEState != RCC_LSE_OFF)
 8001a50:	687b      	ldr	r3, [r7, #4]
 8001a52:	689b      	ldr	r3, [r3, #8]
 8001a54:	2b00      	cmp	r3, #0
 8001a56:	d016      	beq.n	8001a86 <HAL_RCC_OscConfig+0x3ae>
    {
      /* Get Start Tick*/
      tickstart = HAL_GetTick();
 8001a58:	f7fe ff8c 	bl	8000974 <HAL_GetTick>
 8001a5c:	6138      	str	r0, [r7, #16]

      /* Wait till LSE is ready */
      while (READ_BIT(RCC->BDCR, RCC_BDCR_LSERDY) == 0U)
 8001a5e:	e00a      	b.n	8001a76 <HAL_RCC_OscConfig+0x39e>
      {
        if((HAL_GetTick() - tickstart) > RCC_LSE_TIMEOUT_VALUE)
 8001a60:	f7fe ff88 	bl	8000974 <HAL_GetTick>
 8001a64:	4602      	mov	r2, r0
 8001a66:	693b      	ldr	r3, [r7, #16]
 8001a68:	1ad3      	subs	r3, r2, r3
 8001a6a:	f241 3288 	movw	r2, #5000	@ 0x1388
 8001a6e:	4293      	cmp	r3, r2
 8001a70:	d901      	bls.n	8001a76 <HAL_RCC_OscConfig+0x39e>
        {
          return HAL_TIMEOUT;
 8001a72:	2303      	movs	r3, #3
 8001a74:	e138      	b.n	8001ce8 <HAL_RCC_OscConfig+0x610>
      while (READ_BIT(RCC->BDCR, RCC_BDCR_LSERDY) == 0U)
 8001a76:	4b46      	ldr	r3, [pc, #280]	@ (8001b90 <HAL_RCC_OscConfig+0x4b8>)
 8001a78:	f8d3 3090 	ldr.w	r3, [r3, #144]	@ 0x90
 8001a7c:	f003 0302 	and.w	r3, r3, #2
 8001a80:	2b00      	cmp	r3, #0
 8001a82:	d0ed      	beq.n	8001a60 <HAL_RCC_OscConfig+0x388>
 8001a84:	e015      	b.n	8001ab2 <HAL_RCC_OscConfig+0x3da>
      }
    }
    else
    {
      /* Get Start Tick*/
      tickstart = HAL_GetTick();
 8001a86:	f7fe ff75 	bl	8000974 <HAL_GetTick>
 8001a8a:	6138      	str	r0, [r7, #16]

      /* Wait till LSE is disabled */
      while (READ_BIT(RCC->BDCR, RCC_BDCR_LSERDY) != 0U)
 8001a8c:	e00a      	b.n	8001aa4 <HAL_RCC_OscConfig+0x3cc>
      {
        if((HAL_GetTick() - tickstart) > RCC_LSE_TIMEOUT_VALUE)
 8001a8e:	f7fe ff71 	bl	8000974 <HAL_GetTick>
 8001a92:	4602      	mov	r2, r0
 8001a94:	693b      	ldr	r3, [r7, #16]
 8001a96:	1ad3      	subs	r3, r2, r3
 8001a98:	f241 3288 	movw	r2, #5000	@ 0x1388
 8001a9c:	4293      	cmp	r3, r2
 8001a9e:	d901      	bls.n	8001aa4 <HAL_RCC_OscConfig+0x3cc>
        {
          return HAL_TIMEOUT;
 8001aa0:	2303      	movs	r3, #3
 8001aa2:	e121      	b.n	8001ce8 <HAL_RCC_OscConfig+0x610>
      while (READ_BIT(RCC->BDCR, RCC_BDCR_LSERDY) != 0U)
 8001aa4:	4b3a      	ldr	r3, [pc, #232]	@ (8001b90 <HAL_RCC_OscConfig+0x4b8>)
 8001aa6:	f8d3 3090 	ldr.w	r3, [r3, #144]	@ 0x90
 8001aaa:	f003 0302 	and.w	r3, r3, #2
 8001aae:	2b00      	cmp	r3, #0
 8001ab0:	d1ed      	bne.n	8001a8e <HAL_RCC_OscConfig+0x3b6>
        }
      }
    }

    /* Restore clock configuration if changed */
    if (pwrclkchanged == SET)
 8001ab2:	7ffb      	ldrb	r3, [r7, #31]
 8001ab4:	2b01      	cmp	r3, #1
 8001ab6:	d105      	bne.n	8001ac4 <HAL_RCC_OscConfig+0x3ec>
    {
      __HAL_RCC_PWR_CLK_DISABLE();
 8001ab8:	4b35      	ldr	r3, [pc, #212]	@ (8001b90 <HAL_RCC_OscConfig+0x4b8>)
 8001aba:	6d9b      	ldr	r3, [r3, #88]	@ 0x58
 8001abc:	4a34      	ldr	r2, [pc, #208]	@ (8001b90 <HAL_RCC_OscConfig+0x4b8>)
 8001abe:	f023 5380 	bic.w	r3, r3, #268435456	@ 0x10000000
 8001ac2:	6593      	str	r3, [r2, #88]	@ 0x58
    }
  }

  /*------------------------------ HSI48 Configuration -----------------------*/
  if(((RCC_OscInitStruct->OscillatorType) & RCC_OSCILLATORTYPE_HSI48) == RCC_OSCILLATORTYPE_HSI48)
 8001ac4:	687b      	ldr	r3, [r7, #4]
 8001ac6:	681b      	ldr	r3, [r3, #0]
 8001ac8:	f003 0320 	and.w	r3, r3, #32
 8001acc:	2b00      	cmp	r3, #0
 8001ace:	d03c      	beq.n	8001b4a <HAL_RCC_OscConfig+0x472>
  {
    /* Check the parameters */
    assert_param(IS_RCC_HSI48(RCC_OscInitStruct->HSI48State));

    /* Check the HSI48 State */
    if(RCC_OscInitStruct->HSI48State != RCC_HSI48_OFF)
 8001ad0:	687b      	ldr	r3, [r7, #4]
 8001ad2:	699b      	ldr	r3, [r3, #24]
 8001ad4:	2b00      	cmp	r3, #0
 8001ad6:	d01c      	beq.n	8001b12 <HAL_RCC_OscConfig+0x43a>
    {
      /* Enable the Internal Low Speed oscillator (HSI48). */
      __HAL_RCC_HSI48_ENABLE();
 8001ad8:	4b2d      	ldr	r3, [pc, #180]	@ (8001b90 <HAL_RCC_OscConfig+0x4b8>)
 8001ada:	f8d3 3098 	ldr.w	r3, [r3, #152]	@ 0x98
 8001ade:	4a2c      	ldr	r2, [pc, #176]	@ (8001b90 <HAL_RCC_OscConfig+0x4b8>)
 8001ae0:	f043 0301 	orr.w	r3, r3, #1
 8001ae4:	f8c2 3098 	str.w	r3, [r2, #152]	@ 0x98

      /* Get Start Tick*/
      tickstart = HAL_GetTick();
 8001ae8:	f7fe ff44 	bl	8000974 <HAL_GetTick>
 8001aec:	6138      	str	r0, [r7, #16]

      /* Wait till HSI48 is ready */
      while(READ_BIT(RCC->CRRCR, RCC_CRRCR_HSI48RDY) == 0U)
 8001aee:	e008      	b.n	8001b02 <HAL_RCC_OscConfig+0x42a>
      {
        if((HAL_GetTick() - tickstart) > HSI48_TIMEOUT_VALUE)
 8001af0:	f7fe ff40 	bl	8000974 <HAL_GetTick>
 8001af4:	4602      	mov	r2, r0
 8001af6:	693b      	ldr	r3, [r7, #16]
 8001af8:	1ad3      	subs	r3, r2, r3
 8001afa:	2b02      	cmp	r3, #2
 8001afc:	d901      	bls.n	8001b02 <HAL_RCC_OscConfig+0x42a>
        {
          return HAL_TIMEOUT;
 8001afe:	2303      	movs	r3, #3
 8001b00:	e0f2      	b.n	8001ce8 <HAL_RCC_OscConfig+0x610>
      while(READ_BIT(RCC->CRRCR, RCC_CRRCR_HSI48RDY) == 0U)
 8001b02:	4b23      	ldr	r3, [pc, #140]	@ (8001b90 <HAL_RCC_OscConfig+0x4b8>)
 8001b04:	f8d3 3098 	ldr.w	r3, [r3, #152]	@ 0x98
 8001b08:	f003 0302 	and.w	r3, r3, #2
 8001b0c:	2b00      	cmp	r3, #0
 8001b0e:	d0ef      	beq.n	8001af0 <HAL_RCC_OscConfig+0x418>
 8001b10:	e01b      	b.n	8001b4a <HAL_RCC_OscConfig+0x472>
      }
    }
    else
    {
      /* Disable the Internal Low Speed oscillator (HSI48). */
      __HAL_RCC_HSI48_DISABLE();
 8001b12:	4b1f      	ldr	r3, [pc, #124]	@ (8001b90 <HAL_RCC_OscConfig+0x4b8>)
 8001b14:	f8d3 3098 	ldr.w	r3, [r3, #152]	@ 0x98
 8001b18:	4a1d      	ldr	r2, [pc, #116]	@ (8001b90 <HAL_RCC_OscConfig+0x4b8>)
 8001b1a:	f023 0301 	bic.w	r3, r3, #1
 8001b1e:	f8c2 3098 	str.w	r3, [r2, #152]	@ 0x98

      /* Get Start Tick*/
      tickstart = HAL_GetTick();
 8001b22:	f7fe ff27 	bl	8000974 <HAL_GetTick>
 8001b26:	6138      	str	r0, [r7, #16]

      /* Wait till HSI48 is disabled */
      while(READ_BIT(RCC->CRRCR, RCC_CRRCR_HSI48RDY) != 0U)
 8001b28:	e008      	b.n	8001b3c <HAL_RCC_OscConfig+0x464>
      {
        if((HAL_GetTick() - tickstart) > HSI48_TIMEOUT_VALUE)
 8001b2a:	f7fe ff23 	bl	8000974 <HAL_GetTick>
 8001b2e:	4602      	mov	r2, r0
 8001b30:	693b      	ldr	r3, [r7, #16]
 8001b32:	1ad3      	subs	r3, r2, r3
 8001b34:	2b02      	cmp	r3, #2
 8001b36:	d901      	bls.n	8001b3c <HAL_RCC_OscConfig+0x464>
        {
          return HAL_TIMEOUT;
 8001b38:	2303      	movs	r3, #3
 8001b3a:	e0d5      	b.n	8001ce8 <HAL_RCC_OscConfig+0x610>
      while(READ_BIT(RCC->CRRCR, RCC_CRRCR_HSI48RDY) != 0U)
 8001b3c:	4b14      	ldr	r3, [pc, #80]	@ (8001b90 <HAL_RCC_OscConfig+0x4b8>)
 8001b3e:	f8d3 3098 	ldr.w	r3, [r3, #152]	@ 0x98
 8001b42:	f003 0302 	and.w	r3, r3, #2
 8001b46:	2b00      	cmp	r3, #0
 8001b48:	d1ef      	bne.n	8001b2a <HAL_RCC_OscConfig+0x452>

  /*-------------------------------- PLL Configuration -----------------------*/
  /* Check the parameters */
  assert_param(IS_RCC_PLL(RCC_OscInitStruct->PLL.PLLState));

  if (RCC_OscInitStruct->PLL.PLLState != RCC_PLL_NONE)
 8001b4a:	687b      	ldr	r3, [r7, #4]
 8001b4c:	69db      	ldr	r3, [r3, #28]
 8001b4e:	2b00      	cmp	r3, #0
 8001b50:	f000 80c9 	beq.w	8001ce6 <HAL_RCC_OscConfig+0x60e>
  {
    /* Check if the PLL is used as system clock or not */
    if (__HAL_RCC_GET_SYSCLK_SOURCE() != RCC_CFGR_SWS_PLL)
 8001b54:	4b0e      	ldr	r3, [pc, #56]	@ (8001b90 <HAL_RCC_OscConfig+0x4b8>)
 8001b56:	689b      	ldr	r3, [r3, #8]
 8001b58:	f003 030c 	and.w	r3, r3, #12
 8001b5c:	2b0c      	cmp	r3, #12
 8001b5e:	f000 8083 	beq.w	8001c68 <HAL_RCC_OscConfig+0x590>
    {
      if (RCC_OscInitStruct->PLL.PLLState == RCC_PLL_ON)
 8001b62:	687b      	ldr	r3, [r7, #4]
 8001b64:	69db      	ldr	r3, [r3, #28]
 8001b66:	2b02      	cmp	r3, #2
 8001b68:	d15e      	bne.n	8001c28 <HAL_RCC_OscConfig+0x550>
        assert_param(IS_RCC_PLLP_VALUE(RCC_OscInitStruct->PLL.PLLP));
        assert_param(IS_RCC_PLLQ_VALUE(RCC_OscInitStruct->PLL.PLLQ));
        assert_param(IS_RCC_PLLR_VALUE(RCC_OscInitStruct->PLL.PLLR));

        /* Disable the main PLL. */
        __HAL_RCC_PLL_DISABLE();
 8001b6a:	4b09      	ldr	r3, [pc, #36]	@ (8001b90 <HAL_RCC_OscConfig+0x4b8>)
 8001b6c:	681b      	ldr	r3, [r3, #0]
 8001b6e:	4a08      	ldr	r2, [pc, #32]	@ (8001b90 <HAL_RCC_OscConfig+0x4b8>)
 8001b70:	f023 7380 	bic.w	r3, r3, #16777216	@ 0x1000000
 8001b74:	6013      	str	r3, [r2, #0]

        /* Get Start Tick*/
        tickstart = HAL_GetTick();
 8001b76:	f7fe fefd 	bl	8000974 <HAL_GetTick>
 8001b7a:	6138      	str	r0, [r7, #16]

        /* Wait till PLL is disabled */
        while (READ_BIT(RCC->CR, RCC_CR_PLLRDY) != 0U)
 8001b7c:	e00c      	b.n	8001b98 <HAL_RCC_OscConfig+0x4c0>
        {
          if ((HAL_GetTick() - tickstart) > PLL_TIMEOUT_VALUE)
 8001b7e:	f7fe fef9 	bl	8000974 <HAL_GetTick>
 8001b82:	4602      	mov	r2, r0
 8001b84:	693b      	ldr	r3, [r7, #16]
 8001b86:	1ad3      	subs	r3, r2, r3
 8001b88:	2b02      	cmp	r3, #2
 8001b8a:	d905      	bls.n	8001b98 <HAL_RCC_OscConfig+0x4c0>
          {
            return HAL_TIMEOUT;
 8001b8c:	2303      	movs	r3, #3
 8001b8e:	e0ab      	b.n	8001ce8 <HAL_RCC_OscConfig+0x610>
 8001b90:	40021000 	.word	0x40021000
 8001b94:	40007000 	.word	0x40007000
        while (READ_BIT(RCC->CR, RCC_CR_PLLRDY) != 0U)
 8001b98:	4b55      	ldr	r3, [pc, #340]	@ (8001cf0 <HAL_RCC_OscConfig+0x618>)
 8001b9a:	681b      	ldr	r3, [r3, #0]
 8001b9c:	f003 7300 	and.w	r3, r3, #33554432	@ 0x2000000
 8001ba0:	2b00      	cmp	r3, #0
 8001ba2:	d1ec      	bne.n	8001b7e <HAL_RCC_OscConfig+0x4a6>
          }
        }

        /* Configure the main PLL clock source, multiplication and division factors. */
        __HAL_RCC_PLL_CONFIG(RCC_OscInitStruct->PLL.PLLSource,
 8001ba4:	4b52      	ldr	r3, [pc, #328]	@ (8001cf0 <HAL_RCC_OscConfig+0x618>)
 8001ba6:	68da      	ldr	r2, [r3, #12]
 8001ba8:	4b52      	ldr	r3, [pc, #328]	@ (8001cf4 <HAL_RCC_OscConfig+0x61c>)
 8001baa:	4013      	ands	r3, r2
 8001bac:	687a      	ldr	r2, [r7, #4]
 8001bae:	6a11      	ldr	r1, [r2, #32]
 8001bb0:	687a      	ldr	r2, [r7, #4]
 8001bb2:	6a52      	ldr	r2, [r2, #36]	@ 0x24
 8001bb4:	3a01      	subs	r2, #1
 8001bb6:	0112      	lsls	r2, r2, #4
 8001bb8:	4311      	orrs	r1, r2
 8001bba:	687a      	ldr	r2, [r7, #4]
 8001bbc:	6a92      	ldr	r2, [r2, #40]	@ 0x28
 8001bbe:	0212      	lsls	r2, r2, #8
 8001bc0:	4311      	orrs	r1, r2
 8001bc2:	687a      	ldr	r2, [r7, #4]
 8001bc4:	6b12      	ldr	r2, [r2, #48]	@ 0x30
 8001bc6:	0852      	lsrs	r2, r2, #1
 8001bc8:	3a01      	subs	r2, #1
 8001bca:	0552      	lsls	r2, r2, #21
 8001bcc:	4311      	orrs	r1, r2
 8001bce:	687a      	ldr	r2, [r7, #4]
 8001bd0:	6b52      	ldr	r2, [r2, #52]	@ 0x34
 8001bd2:	0852      	lsrs	r2, r2, #1
 8001bd4:	3a01      	subs	r2, #1
 8001bd6:	0652      	lsls	r2, r2, #25
 8001bd8:	4311      	orrs	r1, r2
 8001bda:	687a      	ldr	r2, [r7, #4]
 8001bdc:	6ad2      	ldr	r2, [r2, #44]	@ 0x2c
 8001bde:	06d2      	lsls	r2, r2, #27
 8001be0:	430a      	orrs	r2, r1
 8001be2:	4943      	ldr	r1, [pc, #268]	@ (8001cf0 <HAL_RCC_OscConfig+0x618>)
 8001be4:	4313      	orrs	r3, r2
 8001be6:	60cb      	str	r3, [r1, #12]
                             RCC_OscInitStruct->PLL.PLLP,
                             RCC_OscInitStruct->PLL.PLLQ,
                             RCC_OscInitStruct->PLL.PLLR);

        /* Enable the main PLL. */
        __HAL_RCC_PLL_ENABLE();
 8001be8:	4b41      	ldr	r3, [pc, #260]	@ (8001cf0 <HAL_RCC_OscConfig+0x618>)
 8001bea:	681b      	ldr	r3, [r3, #0]
 8001bec:	4a40      	ldr	r2, [pc, #256]	@ (8001cf0 <HAL_RCC_OscConfig+0x618>)
 8001bee:	f043 7380 	orr.w	r3, r3, #16777216	@ 0x1000000
 8001bf2:	6013      	str	r3, [r2, #0]

        /* Enable PLL System Clock output. */
         __HAL_RCC_PLLCLKOUT_ENABLE(RCC_PLL_SYSCLK);
 8001bf4:	4b3e      	ldr	r3, [pc, #248]	@ (8001cf0 <HAL_RCC_OscConfig+0x618>)
 8001bf6:	68db      	ldr	r3, [r3, #12]
 8001bf8:	4a3d      	ldr	r2, [pc, #244]	@ (8001cf0 <HAL_RCC_OscConfig+0x618>)
 8001bfa:	f043 7380 	orr.w	r3, r3, #16777216	@ 0x1000000
 8001bfe:	60d3      	str	r3, [r2, #12]

        /* Get Start Tick*/
        tickstart = HAL_GetTick();
 8001c00:	f7fe feb8 	bl	8000974 <HAL_GetTick>
 8001c04:	6138      	str	r0, [r7, #16]

        /* Wait till PLL is ready */
        while (READ_BIT(RCC->CR, RCC_CR_PLLRDY) == 0U)
 8001c06:	e008      	b.n	8001c1a <HAL_RCC_OscConfig+0x542>
        {
          if ((HAL_GetTick() - tickstart) > PLL_TIMEOUT_VALUE)
 8001c08:	f7fe feb4 	bl	8000974 <HAL_GetTick>
 8001c0c:	4602      	mov	r2, r0
 8001c0e:	693b      	ldr	r3, [r7, #16]
 8001c10:	1ad3      	subs	r3, r2, r3
 8001c12:	2b02      	cmp	r3, #2
 8001c14:	d901      	bls.n	8001c1a <HAL_RCC_OscConfig+0x542>
          {
            return HAL_TIMEOUT;
 8001c16:	2303      	movs	r3, #3
 8001c18:	e066      	b.n	8001ce8 <HAL_RCC_OscConfig+0x610>
        while (READ_BIT(RCC->CR, RCC_CR_PLLRDY) == 0U)
 8001c1a:	4b35      	ldr	r3, [pc, #212]	@ (8001cf0 <HAL_RCC_OscConfig+0x618>)
 8001c1c:	681b      	ldr	r3, [r3, #0]
 8001c1e:	f003 7300 	and.w	r3, r3, #33554432	@ 0x2000000
 8001c22:	2b00      	cmp	r3, #0
 8001c24:	d0f0      	beq.n	8001c08 <HAL_RCC_OscConfig+0x530>
 8001c26:	e05e      	b.n	8001ce6 <HAL_RCC_OscConfig+0x60e>
        }
      }
      else
      {
        /* Disable the main PLL. */
        __HAL_RCC_PLL_DISABLE();
 8001c28:	4b31      	ldr	r3, [pc, #196]	@ (8001cf0 <HAL_RCC_OscConfig+0x618>)
 8001c2a:	681b      	ldr	r3, [r3, #0]
 8001c2c:	4a30      	ldr	r2, [pc, #192]	@ (8001cf0 <HAL_RCC_OscConfig+0x618>)
 8001c2e:	f023 7380 	bic.w	r3, r3, #16777216	@ 0x1000000
 8001c32:	6013      	str	r3, [r2, #0]

        /* Get Start Tick*/
        tickstart = HAL_GetTick();
 8001c34:	f7fe fe9e 	bl	8000974 <HAL_GetTick>
 8001c38:	6138      	str	r0, [r7, #16]

        /* Wait till PLL is disabled */
        while (READ_BIT(RCC->CR, RCC_CR_PLLRDY) != 0U)
 8001c3a:	e008      	b.n	8001c4e <HAL_RCC_OscConfig+0x576>
        {
          if ((HAL_GetTick() - tickstart) > PLL_TIMEOUT_VALUE)
 8001c3c:	f7fe fe9a 	bl	8000974 <HAL_GetTick>
 8001c40:	4602      	mov	r2, r0
 8001c42:	693b      	ldr	r3, [r7, #16]
 8001c44:	1ad3      	subs	r3, r2, r3
 8001c46:	2b02      	cmp	r3, #2
 8001c48:	d901      	bls.n	8001c4e <HAL_RCC_OscConfig+0x576>
          {
            return HAL_TIMEOUT;
 8001c4a:	2303      	movs	r3, #3
 8001c4c:	e04c      	b.n	8001ce8 <HAL_RCC_OscConfig+0x610>
        while (READ_BIT(RCC->CR, RCC_CR_PLLRDY) != 0U)
 8001c4e:	4b28      	ldr	r3, [pc, #160]	@ (8001cf0 <HAL_RCC_OscConfig+0x618>)
 8001c50:	681b      	ldr	r3, [r3, #0]
 8001c52:	f003 7300 	and.w	r3, r3, #33554432	@ 0x2000000
 8001c56:	2b00      	cmp	r3, #0
 8001c58:	d1f0      	bne.n	8001c3c <HAL_RCC_OscConfig+0x564>
          }
        }

        /* Unselect PLL clock source and disable outputs to save power */
        RCC->PLLCFGR &= ~(RCC_PLLCFGR_PLLSRC | RCC_PLL_SYSCLK | RCC_PLL_48M1CLK | RCC_PLL_ADCCLK);
 8001c5a:	4b25      	ldr	r3, [pc, #148]	@ (8001cf0 <HAL_RCC_OscConfig+0x618>)
 8001c5c:	68da      	ldr	r2, [r3, #12]
 8001c5e:	4924      	ldr	r1, [pc, #144]	@ (8001cf0 <HAL_RCC_OscConfig+0x618>)
 8001c60:	4b25      	ldr	r3, [pc, #148]	@ (8001cf8 <HAL_RCC_OscConfig+0x620>)
 8001c62:	4013      	ands	r3, r2
 8001c64:	60cb      	str	r3, [r1, #12]
 8001c66:	e03e      	b.n	8001ce6 <HAL_RCC_OscConfig+0x60e>
      }
    }
    else
    {
      /* Check if there is a request to disable the PLL used as System clock source */
      if((RCC_OscInitStruct->PLL.PLLState) == RCC_PLL_OFF)
 8001c68:	687b      	ldr	r3, [r7, #4]
 8001c6a:	69db      	ldr	r3, [r3, #28]
 8001c6c:	2b01      	cmp	r3, #1
 8001c6e:	d101      	bne.n	8001c74 <HAL_RCC_OscConfig+0x59c>
      {
        return HAL_ERROR;
 8001c70:	2301      	movs	r3, #1
 8001c72:	e039      	b.n	8001ce8 <HAL_RCC_OscConfig+0x610>
      }
      else
      {
      /* Do not return HAL_ERROR if request repeats the current configuration */
      temp_pllckcfg = RCC->PLLCFGR;
 8001c74:	4b1e      	ldr	r3, [pc, #120]	@ (8001cf0 <HAL_RCC_OscConfig+0x618>)
 8001c76:	68db      	ldr	r3, [r3, #12]
 8001c78:	617b      	str	r3, [r7, #20]
      if((READ_BIT(temp_pllckcfg, RCC_PLLCFGR_PLLSRC) != RCC_OscInitStruct->PLL.PLLSource) ||
 8001c7a:	697b      	ldr	r3, [r7, #20]
 8001c7c:	f003 0203 	and.w	r2, r3, #3
 8001c80:	687b      	ldr	r3, [r7, #4]
 8001c82:	6a1b      	ldr	r3, [r3, #32]
 8001c84:	429a      	cmp	r2, r3
 8001c86:	d12c      	bne.n	8001ce2 <HAL_RCC_OscConfig+0x60a>
         (READ_BIT(temp_pllckcfg, RCC_PLLCFGR_PLLM) != (((RCC_OscInitStruct->PLL.PLLM) - 1U) << RCC_PLLCFGR_PLLM_Pos)) ||
 8001c88:	697b      	ldr	r3, [r7, #20]
 8001c8a:	f003 02f0 	and.w	r2, r3, #240	@ 0xf0
 8001c8e:	687b      	ldr	r3, [r7, #4]
 8001c90:	6a5b      	ldr	r3, [r3, #36]	@ 0x24
 8001c92:	3b01      	subs	r3, #1
 8001c94:	011b      	lsls	r3, r3, #4
      if((READ_BIT(temp_pllckcfg, RCC_PLLCFGR_PLLSRC) != RCC_OscInitStruct->PLL.PLLSource) ||
 8001c96:	429a      	cmp	r2, r3
 8001c98:	d123      	bne.n	8001ce2 <HAL_RCC_OscConfig+0x60a>
         (READ_BIT(temp_pllckcfg, RCC_PLLCFGR_PLLN) != ((RCC_OscInitStruct->PLL.PLLN) << RCC_PLLCFGR_PLLN_Pos)) ||
 8001c9a:	697b      	ldr	r3, [r7, #20]
 8001c9c:	f403 42fe 	and.w	r2, r3, #32512	@ 0x7f00
 8001ca0:	687b      	ldr	r3, [r7, #4]
 8001ca2:	6a9b      	ldr	r3, [r3, #40]	@ 0x28
 8001ca4:	021b      	lsls	r3, r3, #8
         (READ_BIT(temp_pllckcfg, RCC_PLLCFGR_PLLM) != (((RCC_OscInitStruct->PLL.PLLM) - 1U) << RCC_PLLCFGR_PLLM_Pos)) ||
 8001ca6:	429a      	cmp	r2, r3
 8001ca8:	d11b      	bne.n	8001ce2 <HAL_RCC_OscConfig+0x60a>
         (READ_BIT(temp_pllckcfg, RCC_PLLCFGR_PLLPDIV) != ((RCC_OscInitStruct->PLL.PLLP) << RCC_PLLCFGR_PLLPDIV_Pos)) ||
 8001caa:	697b      	ldr	r3, [r7, #20]
 8001cac:	f003 4278 	and.w	r2, r3, #4160749568	@ 0xf8000000
 8001cb0:	687b      	ldr	r3, [r7, #4]
 8001cb2:	6adb      	ldr	r3, [r3, #44]	@ 0x2c
 8001cb4:	06db      	lsls	r3, r3, #27
         (READ_BIT(temp_pllckcfg, RCC_PLLCFGR_PLLN) != ((RCC_OscInitStruct->PLL.PLLN) << RCC_PLLCFGR_PLLN_Pos)) ||
 8001cb6:	429a      	cmp	r2, r3
 8001cb8:	d113      	bne.n	8001ce2 <HAL_RCC_OscConfig+0x60a>
         (READ_BIT(temp_pllckcfg, RCC_PLLCFGR_PLLQ) != ((((RCC_OscInitStruct->PLL.PLLQ) >> 1U) - 1U) << RCC_PLLCFGR_PLLQ_Pos)) ||
 8001cba:	697b      	ldr	r3, [r7, #20]
 8001cbc:	f403 02c0 	and.w	r2, r3, #6291456	@ 0x600000
 8001cc0:	687b      	ldr	r3, [r7, #4]
 8001cc2:	6b1b      	ldr	r3, [r3, #48]	@ 0x30
 8001cc4:	085b      	lsrs	r3, r3, #1
 8001cc6:	3b01      	subs	r3, #1
 8001cc8:	055b      	lsls	r3, r3, #21
         (READ_BIT(temp_pllckcfg, RCC_PLLCFGR_PLLPDIV) != ((RCC_OscInitStruct->PLL.PLLP) << RCC_PLLCFGR_PLLPDIV_Pos)) ||
 8001cca:	429a      	cmp	r2, r3
 8001ccc:	d109      	bne.n	8001ce2 <HAL_RCC_OscConfig+0x60a>
         (READ_BIT(temp_pllckcfg, RCC_PLLCFGR_PLLR) != ((((RCC_OscInitStruct->PLL.PLLR) >> 1U) - 1U) << RCC_PLLCFGR_PLLR_Pos)))
 8001cce:	697b      	ldr	r3, [r7, #20]
 8001cd0:	f003 62c0 	and.w	r2, r3, #100663296	@ 0x6000000
 8001cd4:	687b      	ldr	r3, [r7, #4]
 8001cd6:	6b5b      	ldr	r3, [r3, #52]	@ 0x34
 8001cd8:	085b      	lsrs	r3, r3, #1
 8001cda:	3b01      	subs	r3, #1
 8001cdc:	065b      	lsls	r3, r3, #25
         (READ_BIT(temp_pllckcfg, RCC_PLLCFGR_PLLQ) != ((((RCC_OscInitStruct->PLL.PLLQ) >> 1U) - 1U) << RCC_PLLCFGR_PLLQ_Pos)) ||
 8001cde:	429a      	cmp	r2, r3
 8001ce0:	d001      	beq.n	8001ce6 <HAL_RCC_OscConfig+0x60e>
      {
        return HAL_ERROR;
 8001ce2:	2301      	movs	r3, #1
 8001ce4:	e000      	b.n	8001ce8 <HAL_RCC_OscConfig+0x610>
      }
    }
  }
  }

  return HAL_OK;
 8001ce6:	2300      	movs	r3, #0
}
 8001ce8:	4618      	mov	r0, r3
 8001cea:	3720      	adds	r7, #32
 8001cec:	46bd      	mov	sp, r7
 8001cee:	bd80      	pop	{r7, pc}
 8001cf0:	40021000 	.word	0x40021000
 8001cf4:	019f800c 	.word	0x019f800c
 8001cf8:	feeefffc 	.word	0xfeeefffc

08001cfc <HAL_RCC_ClockConfig>:
  *         HPRE[3:0] bits to ensure that HCLK not exceed the maximum allowed frequency
  *         (for more details refer to section above "Initialization/de-initialization functions")
  * @retval None
  */
HAL_StatusTypeDef HAL_RCC_ClockConfig(const RCC_ClkInitTypeDef  *RCC_ClkInitStruct, uint32_t FLatency)
{
 8001cfc:	b580      	push	{r7, lr}
 8001cfe:	b086      	sub	sp, #24
 8001d00:	af00      	add	r7, sp, #0
 8001d02:	6078      	str	r0, [r7, #4]
 8001d04:	6039      	str	r1, [r7, #0]
  uint32_t tickstart;
  uint32_t pllfreq;
  uint32_t hpre = RCC_SYSCLK_DIV1;
 8001d06:	2300      	movs	r3, #0
 8001d08:	617b      	str	r3, [r7, #20]

  /* Check Null pointer */
  if (RCC_ClkInitStruct == NULL)
 8001d0a:	687b      	ldr	r3, [r7, #4]
 8001d0c:	2b00      	cmp	r3, #0
 8001d0e:	d101      	bne.n	8001d14 <HAL_RCC_ClockConfig+0x18>
  {
    return HAL_ERROR;
 8001d10:	2301      	movs	r3, #1
 8001d12:	e11e      	b.n	8001f52 <HAL_RCC_ClockConfig+0x256>
  /* To correctly read data from FLASH memory, the number of wait states (LATENCY)
    must be correctly programmed according to the frequency of the CPU clock
    (HCLK) and the supply voltage of the device. */

  /* Increasing the number of wait states because of higher CPU frequency */
  if (FLatency > __HAL_FLASH_GET_LATENCY())
 8001d14:	4b91      	ldr	r3, [pc, #580]	@ (8001f5c <HAL_RCC_ClockConfig+0x260>)
 8001d16:	681b      	ldr	r3, [r3, #0]
 8001d18:	f003 030f 	and.w	r3, r3, #15
 8001d1c:	683a      	ldr	r2, [r7, #0]
 8001d1e:	429a      	cmp	r2, r3
 8001d20:	d910      	bls.n	8001d44 <HAL_RCC_ClockConfig+0x48>
  {
    /* Program the new number of wait states to the LATENCY bits in the FLASH_ACR register */
    __HAL_FLASH_SET_LATENCY(FLatency);
 8001d22:	4b8e      	ldr	r3, [pc, #568]	@ (8001f5c <HAL_RCC_ClockConfig+0x260>)
 8001d24:	681b      	ldr	r3, [r3, #0]
 8001d26:	f023 020f 	bic.w	r2, r3, #15
 8001d2a:	498c      	ldr	r1, [pc, #560]	@ (8001f5c <HAL_RCC_ClockConfig+0x260>)
 8001d2c:	683b      	ldr	r3, [r7, #0]
 8001d2e:	4313      	orrs	r3, r2
 8001d30:	600b      	str	r3, [r1, #0]

    /* Check that the new number of wait states is taken into account to access the Flash
    memory by reading the FLASH_ACR register */
    if (__HAL_FLASH_GET_LATENCY() != FLatency)
 8001d32:	4b8a      	ldr	r3, [pc, #552]	@ (8001f5c <HAL_RCC_ClockConfig+0x260>)
 8001d34:	681b      	ldr	r3, [r3, #0]
 8001d36:	f003 030f 	and.w	r3, r3, #15
 8001d3a:	683a      	ldr	r2, [r7, #0]
 8001d3c:	429a      	cmp	r2, r3
 8001d3e:	d001      	beq.n	8001d44 <HAL_RCC_ClockConfig+0x48>
    {
      return HAL_ERROR;
 8001d40:	2301      	movs	r3, #1
 8001d42:	e106      	b.n	8001f52 <HAL_RCC_ClockConfig+0x256>
    }
  }

  /*------------------------- SYSCLK Configuration ---------------------------*/
  if(((RCC_ClkInitStruct->ClockType) & RCC_CLOCKTYPE_SYSCLK) == RCC_CLOCKTYPE_SYSCLK)
 8001d44:	687b      	ldr	r3, [r7, #4]
 8001d46:	681b      	ldr	r3, [r3, #0]
 8001d48:	f003 0301 	and.w	r3, r3, #1
 8001d4c:	2b00      	cmp	r3, #0
 8001d4e:	d073      	beq.n	8001e38 <HAL_RCC_ClockConfig+0x13c>
  {
    assert_param(IS_RCC_SYSCLKSOURCE(RCC_ClkInitStruct->SYSCLKSource));

    /* PLL is selected as System Clock Source */
    if (RCC_ClkInitStruct->SYSCLKSource == RCC_SYSCLKSOURCE_PLLCLK)
 8001d50:	687b      	ldr	r3, [r7, #4]
 8001d52:	685b      	ldr	r3, [r3, #4]
 8001d54:	2b03      	cmp	r3, #3
 8001d56:	d129      	bne.n	8001dac <HAL_RCC_ClockConfig+0xb0>
    {
      /* Check the PLL ready flag */
      if (READ_BIT(RCC->CR, RCC_CR_PLLRDY) == 0U)
 8001d58:	4b81      	ldr	r3, [pc, #516]	@ (8001f60 <HAL_RCC_ClockConfig+0x264>)
 8001d5a:	681b      	ldr	r3, [r3, #0]
 8001d5c:	f003 7300 	and.w	r3, r3, #33554432	@ 0x2000000
 8001d60:	2b00      	cmp	r3, #0
 8001d62:	d101      	bne.n	8001d68 <HAL_RCC_ClockConfig+0x6c>
      {
        return HAL_ERROR;
 8001d64:	2301      	movs	r3, #1
 8001d66:	e0f4      	b.n	8001f52 <HAL_RCC_ClockConfig+0x256>
      }
      /* Undershoot management when selection PLL as SYSCLK source and frequency above 80Mhz */
      /* Compute target PLL output frequency */
      pllfreq = RCC_GetSysClockFreqFromPLLSource();
 8001d68:	f000 f966 	bl	8002038 <RCC_GetSysClockFreqFromPLLSource>
 8001d6c:	6138      	str	r0, [r7, #16]

      /* Intermediate step with HCLK prescaler 2 necessary before to go over 80Mhz */
      if(pllfreq > 80000000U)
 8001d6e:	693b      	ldr	r3, [r7, #16]
 8001d70:	4a7c      	ldr	r2, [pc, #496]	@ (8001f64 <HAL_RCC_ClockConfig+0x268>)
 8001d72:	4293      	cmp	r3, r2
 8001d74:	d93f      	bls.n	8001df6 <HAL_RCC_ClockConfig+0xfa>
      {
        if (((READ_BIT(RCC->CFGR, RCC_CFGR_HPRE) == RCC_SYSCLK_DIV1)) ||
 8001d76:	4b7a      	ldr	r3, [pc, #488]	@ (8001f60 <HAL_RCC_ClockConfig+0x264>)
 8001d78:	689b      	ldr	r3, [r3, #8]
 8001d7a:	f003 03f0 	and.w	r3, r3, #240	@ 0xf0
 8001d7e:	2b00      	cmp	r3, #0
 8001d80:	d009      	beq.n	8001d96 <HAL_RCC_ClockConfig+0x9a>
            (((((RCC_ClkInitStruct->ClockType) & RCC_CLOCKTYPE_HCLK) == RCC_CLOCKTYPE_HCLK) &&
 8001d82:	687b      	ldr	r3, [r7, #4]
 8001d84:	681b      	ldr	r3, [r3, #0]
 8001d86:	f003 0302 	and.w	r3, r3, #2
        if (((READ_BIT(RCC->CFGR, RCC_CFGR_HPRE) == RCC_SYSCLK_DIV1)) ||
 8001d8a:	2b00      	cmp	r3, #0
 8001d8c:	d033      	beq.n	8001df6 <HAL_RCC_ClockConfig+0xfa>
              (RCC_ClkInitStruct->AHBCLKDivider == RCC_SYSCLK_DIV1))))
 8001d8e:	687b      	ldr	r3, [r7, #4]
 8001d90:	689b      	ldr	r3, [r3, #8]
            (((((RCC_ClkInitStruct->ClockType) & RCC_CLOCKTYPE_HCLK) == RCC_CLOCKTYPE_HCLK) &&
 8001d92:	2b00      	cmp	r3, #0
 8001d94:	d12f      	bne.n	8001df6 <HAL_RCC_ClockConfig+0xfa>
        {
          MODIFY_REG(RCC->CFGR, RCC_CFGR_HPRE, RCC_SYSCLK_DIV2);
 8001d96:	4b72      	ldr	r3, [pc, #456]	@ (8001f60 <HAL_RCC_ClockConfig+0x264>)
 8001d98:	689b      	ldr	r3, [r3, #8]
 8001d9a:	f023 03f0 	bic.w	r3, r3, #240	@ 0xf0
 8001d9e:	4a70      	ldr	r2, [pc, #448]	@ (8001f60 <HAL_RCC_ClockConfig+0x264>)
 8001da0:	f043 0380 	orr.w	r3, r3, #128	@ 0x80
 8001da4:	6093      	str	r3, [r2, #8]
          hpre = RCC_SYSCLK_DIV2;
 8001da6:	2380      	movs	r3, #128	@ 0x80
 8001da8:	617b      	str	r3, [r7, #20]
 8001daa:	e024      	b.n	8001df6 <HAL_RCC_ClockConfig+0xfa>
      }
    }
    else
    {
      /* HSE is selected as System Clock Source */
      if (RCC_ClkInitStruct->SYSCLKSource == RCC_SYSCLKSOURCE_HSE)
 8001dac:	687b      	ldr	r3, [r7, #4]
 8001dae:	685b      	ldr	r3, [r3, #4]
 8001db0:	2b02      	cmp	r3, #2
 8001db2:	d107      	bne.n	8001dc4 <HAL_RCC_ClockConfig+0xc8>
      {
        /* Check the HSE ready flag */
        if(READ_BIT(RCC->CR, RCC_CR_HSERDY) == 0U)
 8001db4:	4b6a      	ldr	r3, [pc, #424]	@ (8001f60 <HAL_RCC_ClockConfig+0x264>)
 8001db6:	681b      	ldr	r3, [r3, #0]
 8001db8:	f403 3300 	and.w	r3, r3, #131072	@ 0x20000
 8001dbc:	2b00      	cmp	r3, #0
 8001dbe:	d109      	bne.n	8001dd4 <HAL_RCC_ClockConfig+0xd8>
        {
          return HAL_ERROR;
 8001dc0:	2301      	movs	r3, #1
 8001dc2:	e0c6      	b.n	8001f52 <HAL_RCC_ClockConfig+0x256>
      }
      /* HSI is selected as System Clock Source */
      else
      {
        /* Check the HSI ready flag */
        if(READ_BIT(RCC->CR, RCC_CR_HSIRDY) == 0U)
 8001dc4:	4b66      	ldr	r3, [pc, #408]	@ (8001f60 <HAL_RCC_ClockConfig+0x264>)
 8001dc6:	681b      	ldr	r3, [r3, #0]
 8001dc8:	f403 6380 	and.w	r3, r3, #1024	@ 0x400
 8001dcc:	2b00      	cmp	r3, #0
 8001dce:	d101      	bne.n	8001dd4 <HAL_RCC_ClockConfig+0xd8>
        {
          return HAL_ERROR;
 8001dd0:	2301      	movs	r3, #1
 8001dd2:	e0be      	b.n	8001f52 <HAL_RCC_ClockConfig+0x256>
        }
      }
      /* Overshoot management when going down from PLL as SYSCLK source and frequency above 80Mhz */
      pllfreq = HAL_RCC_GetSysClockFreq();
 8001dd4:	f000 f8ce 	bl	8001f74 <HAL_RCC_GetSysClockFreq>
 8001dd8:	6138      	str	r0, [r7, #16]

      /* Intermediate step with HCLK prescaler 2 necessary before to go under 80Mhz */
      if(pllfreq > 80000000U)
 8001dda:	693b      	ldr	r3, [r7, #16]
 8001ddc:	4a61      	ldr	r2, [pc, #388]	@ (8001f64 <HAL_RCC_ClockConfig+0x268>)
 8001dde:	4293      	cmp	r3, r2
 8001de0:	d909      	bls.n	8001df6 <HAL_RCC_ClockConfig+0xfa>
      {
        MODIFY_REG(RCC->CFGR, RCC_CFGR_HPRE, RCC_SYSCLK_DIV2);
 8001de2:	4b5f      	ldr	r3, [pc, #380]	@ (8001f60 <HAL_RCC_ClockConfig+0x264>)
 8001de4:	689b      	ldr	r3, [r3, #8]
 8001de6:	f023 03f0 	bic.w	r3, r3, #240	@ 0xf0
 8001dea:	4a5d      	ldr	r2, [pc, #372]	@ (8001f60 <HAL_RCC_ClockConfig+0x264>)
 8001dec:	f043 0380 	orr.w	r3, r3, #128	@ 0x80
 8001df0:	6093      	str	r3, [r2, #8]
        hpre = RCC_SYSCLK_DIV2;
 8001df2:	2380      	movs	r3, #128	@ 0x80
 8001df4:	617b      	str	r3, [r7, #20]
      }

    }

    MODIFY_REG(RCC->CFGR, RCC_CFGR_SW, RCC_ClkInitStruct->SYSCLKSource);
 8001df6:	4b5a      	ldr	r3, [pc, #360]	@ (8001f60 <HAL_RCC_ClockConfig+0x264>)
 8001df8:	689b      	ldr	r3, [r3, #8]
 8001dfa:	f023 0203 	bic.w	r2, r3, #3
 8001dfe:	687b      	ldr	r3, [r7, #4]
 8001e00:	685b      	ldr	r3, [r3, #4]
 8001e02:	4957      	ldr	r1, [pc, #348]	@ (8001f60 <HAL_RCC_ClockConfig+0x264>)
 8001e04:	4313      	orrs	r3, r2
 8001e06:	608b      	str	r3, [r1, #8]

    /* Get Start Tick*/
    tickstart = HAL_GetTick();
 8001e08:	f7fe fdb4 	bl	8000974 <HAL_GetTick>
 8001e0c:	60f8      	str	r0, [r7, #12]

    while (__HAL_RCC_GET_SYSCLK_SOURCE() != (RCC_ClkInitStruct->SYSCLKSource << RCC_CFGR_SWS_Pos))
 8001e0e:	e00a      	b.n	8001e26 <HAL_RCC_ClockConfig+0x12a>
    {
      if ((HAL_GetTick() - tickstart) > CLOCKSWITCH_TIMEOUT_VALUE)
 8001e10:	f7fe fdb0 	bl	8000974 <HAL_GetTick>
 8001e14:	4602      	mov	r2, r0
 8001e16:	68fb      	ldr	r3, [r7, #12]
 8001e18:	1ad3      	subs	r3, r2, r3
 8001e1a:	f241 3288 	movw	r2, #5000	@ 0x1388
 8001e1e:	4293      	cmp	r3, r2
 8001e20:	d901      	bls.n	8001e26 <HAL_RCC_ClockConfig+0x12a>
      {
        return HAL_TIMEOUT;
 8001e22:	2303      	movs	r3, #3
 8001e24:	e095      	b.n	8001f52 <HAL_RCC_ClockConfig+0x256>
    while (__HAL_RCC_GET_SYSCLK_SOURCE() != (RCC_ClkInitStruct->SYSCLKSource << RCC_CFGR_SWS_Pos))
 8001e26:	4b4e      	ldr	r3, [pc, #312]	@ (8001f60 <HAL_RCC_ClockConfig+0x264>)
 8001e28:	689b      	ldr	r3, [r3, #8]
 8001e2a:	f003 020c 	and.w	r2, r3, #12
 8001e2e:	687b      	ldr	r3, [r7, #4]
 8001e30:	685b      	ldr	r3, [r3, #4]
 8001e32:	009b      	lsls	r3, r3, #2
 8001e34:	429a      	cmp	r2, r3
 8001e36:	d1eb      	bne.n	8001e10 <HAL_RCC_ClockConfig+0x114>
      }
    }
  }

  /*-------------------------- HCLK Configuration --------------------------*/
  if (((RCC_ClkInitStruct->ClockType) & RCC_CLOCKTYPE_HCLK) == RCC_CLOCKTYPE_HCLK)
 8001e38:	687b      	ldr	r3, [r7, #4]
 8001e3a:	681b      	ldr	r3, [r3, #0]
 8001e3c:	f003 0302 	and.w	r3, r3, #2
 8001e40:	2b00      	cmp	r3, #0
 8001e42:	d023      	beq.n	8001e8c <HAL_RCC_ClockConfig+0x190>
  {
    /* Set the highest APB divider in order to ensure that we do not go through
       a non-spec phase whatever we decrease or increase HCLK. */
    if (((RCC_ClkInitStruct->ClockType) & RCC_CLOCKTYPE_PCLK1) == RCC_CLOCKTYPE_PCLK1)
 8001e44:	687b      	ldr	r3, [r7, #4]
 8001e46:	681b      	ldr	r3, [r3, #0]
 8001e48:	f003 0304 	and.w	r3, r3, #4
 8001e4c:	2b00      	cmp	r3, #0
 8001e4e:	d005      	beq.n	8001e5c <HAL_RCC_ClockConfig+0x160>
    {
      MODIFY_REG(RCC->CFGR, RCC_CFGR_PPRE1, RCC_HCLK_DIV16);
 8001e50:	4b43      	ldr	r3, [pc, #268]	@ (8001f60 <HAL_RCC_ClockConfig+0x264>)
 8001e52:	689b      	ldr	r3, [r3, #8]
 8001e54:	4a42      	ldr	r2, [pc, #264]	@ (8001f60 <HAL_RCC_ClockConfig+0x264>)
 8001e56:	f443 63e0 	orr.w	r3, r3, #1792	@ 0x700
 8001e5a:	6093      	str	r3, [r2, #8]
    }
    if (((RCC_ClkInitStruct->ClockType) & RCC_CLOCKTYPE_PCLK2) == RCC_CLOCKTYPE_PCLK2)
 8001e5c:	687b      	ldr	r3, [r7, #4]
 8001e5e:	681b      	ldr	r3, [r3, #0]
 8001e60:	f003 0308 	and.w	r3, r3, #8
 8001e64:	2b00      	cmp	r3, #0
 8001e66:	d007      	beq.n	8001e78 <HAL_RCC_ClockConfig+0x17c>
    {
      MODIFY_REG(RCC->CFGR, RCC_CFGR_PPRE2, RCC_HCLK_DIV16);
 8001e68:	4b3d      	ldr	r3, [pc, #244]	@ (8001f60 <HAL_RCC_ClockConfig+0x264>)
 8001e6a:	689b      	ldr	r3, [r3, #8]
 8001e6c:	f423 537c 	bic.w	r3, r3, #16128	@ 0x3f00
 8001e70:	4a3b      	ldr	r2, [pc, #236]	@ (8001f60 <HAL_RCC_ClockConfig+0x264>)
 8001e72:	f443 63e0 	orr.w	r3, r3, #1792	@ 0x700
 8001e76:	6093      	str	r3, [r2, #8]
    }

    /* Set the new HCLK clock divider */
    assert_param(IS_RCC_HCLK(RCC_ClkInitStruct->AHBCLKDivider));
    MODIFY_REG(RCC->CFGR, RCC_CFGR_HPRE, RCC_ClkInitStruct->AHBCLKDivider);
 8001e78:	4b39      	ldr	r3, [pc, #228]	@ (8001f60 <HAL_RCC_ClockConfig+0x264>)
 8001e7a:	689b      	ldr	r3, [r3, #8]
 8001e7c:	f023 02f0 	bic.w	r2, r3, #240	@ 0xf0
 8001e80:	687b      	ldr	r3, [r7, #4]
 8001e82:	689b      	ldr	r3, [r3, #8]
 8001e84:	4936      	ldr	r1, [pc, #216]	@ (8001f60 <HAL_RCC_ClockConfig+0x264>)
 8001e86:	4313      	orrs	r3, r2
 8001e88:	608b      	str	r3, [r1, #8]
 8001e8a:	e008      	b.n	8001e9e <HAL_RCC_ClockConfig+0x1a2>
  }
  else
  {
    /* Is intermediate HCLK prescaler 2 applied internally, complete with HCLK prescaler 1 */
    if(hpre == RCC_SYSCLK_DIV2)
 8001e8c:	697b      	ldr	r3, [r7, #20]
 8001e8e:	2b80      	cmp	r3, #128	@ 0x80
 8001e90:	d105      	bne.n	8001e9e <HAL_RCC_ClockConfig+0x1a2>
    {
      MODIFY_REG(RCC->CFGR, RCC_CFGR_HPRE, RCC_SYSCLK_DIV1);
 8001e92:	4b33      	ldr	r3, [pc, #204]	@ (8001f60 <HAL_RCC_ClockConfig+0x264>)
 8001e94:	689b      	ldr	r3, [r3, #8]
 8001e96:	4a32      	ldr	r2, [pc, #200]	@ (8001f60 <HAL_RCC_ClockConfig+0x264>)
 8001e98:	f023 03f0 	bic.w	r3, r3, #240	@ 0xf0
 8001e9c:	6093      	str	r3, [r2, #8]
    }
  }

  /* Decreasing the number of wait states because of lower CPU frequency */
  if (FLatency < __HAL_FLASH_GET_LATENCY())
 8001e9e:	4b2f      	ldr	r3, [pc, #188]	@ (8001f5c <HAL_RCC_ClockConfig+0x260>)
 8001ea0:	681b      	ldr	r3, [r3, #0]
 8001ea2:	f003 030f 	and.w	r3, r3, #15
 8001ea6:	683a      	ldr	r2, [r7, #0]
 8001ea8:	429a      	cmp	r2, r3
 8001eaa:	d21d      	bcs.n	8001ee8 <HAL_RCC_ClockConfig+0x1ec>
  {
    /* Program the new number of wait states to the LATENCY bits in the FLASH_ACR register */
    __HAL_FLASH_SET_LATENCY(FLatency);
 8001eac:	4b2b      	ldr	r3, [pc, #172]	@ (8001f5c <HAL_RCC_ClockConfig+0x260>)
 8001eae:	681b      	ldr	r3, [r3, #0]
 8001eb0:	f023 020f 	bic.w	r2, r3, #15
 8001eb4:	4929      	ldr	r1, [pc, #164]	@ (8001f5c <HAL_RCC_ClockConfig+0x260>)
 8001eb6:	683b      	ldr	r3, [r7, #0]
 8001eb8:	4313      	orrs	r3, r2
 8001eba:	600b      	str	r3, [r1, #0]

    /* Check that the new number of wait states is taken into account to access the Flash
    memory by polling the FLASH_ACR register */
    tickstart = HAL_GetTick();
 8001ebc:	f7fe fd5a 	bl	8000974 <HAL_GetTick>
 8001ec0:	60f8      	str	r0, [r7, #12]

    while (__HAL_FLASH_GET_LATENCY() != FLatency)
 8001ec2:	e00a      	b.n	8001eda <HAL_RCC_ClockConfig+0x1de>
    {
      if ((HAL_GetTick() - tickstart) > CLOCKSWITCH_TIMEOUT_VALUE)
 8001ec4:	f7fe fd56 	bl	8000974 <HAL_GetTick>
 8001ec8:	4602      	mov	r2, r0
 8001eca:	68fb      	ldr	r3, [r7, #12]
 8001ecc:	1ad3      	subs	r3, r2, r3
 8001ece:	f241 3288 	movw	r2, #5000	@ 0x1388
 8001ed2:	4293      	cmp	r3, r2
 8001ed4:	d901      	bls.n	8001eda <HAL_RCC_ClockConfig+0x1de>
      {
        return HAL_TIMEOUT;
 8001ed6:	2303      	movs	r3, #3
 8001ed8:	e03b      	b.n	8001f52 <HAL_RCC_ClockConfig+0x256>
    while (__HAL_FLASH_GET_LATENCY() != FLatency)
 8001eda:	4b20      	ldr	r3, [pc, #128]	@ (8001f5c <HAL_RCC_ClockConfig+0x260>)
 8001edc:	681b      	ldr	r3, [r3, #0]
 8001ede:	f003 030f 	and.w	r3, r3, #15
 8001ee2:	683a      	ldr	r2, [r7, #0]
 8001ee4:	429a      	cmp	r2, r3
 8001ee6:	d1ed      	bne.n	8001ec4 <HAL_RCC_ClockConfig+0x1c8>
      }
    }
  }

  /*-------------------------- PCLK1 Configuration ---------------------------*/
  if (((RCC_ClkInitStruct->ClockType) & RCC_CLOCKTYPE_PCLK1) == RCC_CLOCKTYPE_PCLK1)
 8001ee8:	687b      	ldr	r3, [r7, #4]
 8001eea:	681b      	ldr	r3, [r3, #0]
 8001eec:	f003 0304 	and.w	r3, r3, #4
 8001ef0:	2b00      	cmp	r3, #0
 8001ef2:	d008      	beq.n	8001f06 <HAL_RCC_ClockConfig+0x20a>
  {
    assert_param(IS_RCC_PCLK(RCC_ClkInitStruct->APB1CLKDivider));
    MODIFY_REG(RCC->CFGR, RCC_CFGR_PPRE1, RCC_ClkInitStruct->APB1CLKDivider);
 8001ef4:	4b1a      	ldr	r3, [pc, #104]	@ (8001f60 <HAL_RCC_ClockConfig+0x264>)
 8001ef6:	689b      	ldr	r3, [r3, #8]
 8001ef8:	f423 62e0 	bic.w	r2, r3, #1792	@ 0x700
 8001efc:	687b      	ldr	r3, [r7, #4]
 8001efe:	68db      	ldr	r3, [r3, #12]
 8001f00:	4917      	ldr	r1, [pc, #92]	@ (8001f60 <HAL_RCC_ClockConfig+0x264>)
 8001f02:	4313      	orrs	r3, r2
 8001f04:	608b      	str	r3, [r1, #8]
  }

  /*-------------------------- PCLK2 Configuration ---------------------------*/
  if(((RCC_ClkInitStruct->ClockType) & RCC_CLOCKTYPE_PCLK2) == RCC_CLOCKTYPE_PCLK2)
 8001f06:	687b      	ldr	r3, [r7, #4]
 8001f08:	681b      	ldr	r3, [r3, #0]
 8001f0a:	f003 0308 	and.w	r3, r3, #8
 8001f0e:	2b00      	cmp	r3, #0
 8001f10:	d009      	beq.n	8001f26 <HAL_RCC_ClockConfig+0x22a>
  {
    assert_param(IS_RCC_PCLK(RCC_ClkInitStruct->APB2CLKDivider));
    MODIFY_REG(RCC->CFGR, RCC_CFGR_PPRE2, ((RCC_ClkInitStruct->APB2CLKDivider) << 3U));
 8001f12:	4b13      	ldr	r3, [pc, #76]	@ (8001f60 <HAL_RCC_ClockConfig+0x264>)
 8001f14:	689b      	ldr	r3, [r3, #8]
 8001f16:	f423 5260 	bic.w	r2, r3, #14336	@ 0x3800
 8001f1a:	687b      	ldr	r3, [r7, #4]
 8001f1c:	691b      	ldr	r3, [r3, #16]
 8001f1e:	00db      	lsls	r3, r3, #3
 8001f20:	490f      	ldr	r1, [pc, #60]	@ (8001f60 <HAL_RCC_ClockConfig+0x264>)
 8001f22:	4313      	orrs	r3, r2
 8001f24:	608b      	str	r3, [r1, #8]
  }

  /* Update the SystemCoreClock global variable */
  SystemCoreClock = HAL_RCC_GetSysClockFreq() >> (AHBPrescTable[READ_BIT(RCC->CFGR, RCC_CFGR_HPRE) >> RCC_CFGR_HPRE_Pos] & 0x1FU);
 8001f26:	f000 f825 	bl	8001f74 <HAL_RCC_GetSysClockFreq>
 8001f2a:	4602      	mov	r2, r0
 8001f2c:	4b0c      	ldr	r3, [pc, #48]	@ (8001f60 <HAL_RCC_ClockConfig+0x264>)
 8001f2e:	689b      	ldr	r3, [r3, #8]
 8001f30:	091b      	lsrs	r3, r3, #4
 8001f32:	f003 030f 	and.w	r3, r3, #15
 8001f36:	490c      	ldr	r1, [pc, #48]	@ (8001f68 <HAL_RCC_ClockConfig+0x26c>)
 8001f38:	5ccb      	ldrb	r3, [r1, r3]
 8001f3a:	f003 031f 	and.w	r3, r3, #31
 8001f3e:	fa22 f303 	lsr.w	r3, r2, r3
 8001f42:	4a0a      	ldr	r2, [pc, #40]	@ (8001f6c <HAL_RCC_ClockConfig+0x270>)
 8001f44:	6013      	str	r3, [r2, #0]

  /* Configure the source of time base considering new system clocks settings*/
  return HAL_InitTick(uwTickPrio);
 8001f46:	4b0a      	ldr	r3, [pc, #40]	@ (8001f70 <HAL_RCC_ClockConfig+0x274>)
 8001f48:	681b      	ldr	r3, [r3, #0]
 8001f4a:	4618      	mov	r0, r3
 8001f4c:	f7fe fcc6 	bl	80008dc <HAL_InitTick>
 8001f50:	4603      	mov	r3, r0
}
 8001f52:	4618      	mov	r0, r3
 8001f54:	3718      	adds	r7, #24
 8001f56:	46bd      	mov	sp, r7
 8001f58:	bd80      	pop	{r7, pc}
 8001f5a:	bf00      	nop
 8001f5c:	40022000 	.word	0x40022000
 8001f60:	40021000 	.word	0x40021000
 8001f64:	04c4b400 	.word	0x04c4b400
 8001f68:	0800397c 	.word	0x0800397c
 8001f6c:	20000000 	.word	0x20000000
 8001f70:	20000004 	.word	0x20000004

08001f74 <HAL_RCC_GetSysClockFreq>:
  *
  *
  * @retval SYSCLK frequency
  */
uint32_t HAL_RCC_GetSysClockFreq(void)
{
 8001f74:	b480      	push	{r7}
 8001f76:	b087      	sub	sp, #28
 8001f78:	af00      	add	r7, sp, #0
  uint32_t pllvco, pllsource, pllr, pllm;
  uint32_t sysclockfreq;

  if (__HAL_RCC_GET_SYSCLK_SOURCE() == RCC_CFGR_SWS_HSI)
 8001f7a:	4b2c      	ldr	r3, [pc, #176]	@ (800202c <HAL_RCC_GetSysClockFreq+0xb8>)
 8001f7c:	689b      	ldr	r3, [r3, #8]
 8001f7e:	f003 030c 	and.w	r3, r3, #12
 8001f82:	2b04      	cmp	r3, #4
 8001f84:	d102      	bne.n	8001f8c <HAL_RCC_GetSysClockFreq+0x18>
  {
    /* HSI used as system clock source */
    sysclockfreq = HSI_VALUE;
 8001f86:	4b2a      	ldr	r3, [pc, #168]	@ (8002030 <HAL_RCC_GetSysClockFreq+0xbc>)
 8001f88:	613b      	str	r3, [r7, #16]
 8001f8a:	e047      	b.n	800201c <HAL_RCC_GetSysClockFreq+0xa8>
  }
  else if (__HAL_RCC_GET_SYSCLK_SOURCE() == RCC_CFGR_SWS_HSE)
 8001f8c:	4b27      	ldr	r3, [pc, #156]	@ (800202c <HAL_RCC_GetSysClockFreq+0xb8>)
 8001f8e:	689b      	ldr	r3, [r3, #8]
 8001f90:	f003 030c 	and.w	r3, r3, #12
 8001f94:	2b08      	cmp	r3, #8
 8001f96:	d102      	bne.n	8001f9e <HAL_RCC_GetSysClockFreq+0x2a>
  {
    /* HSE used as system clock source */
    sysclockfreq = HSE_VALUE;
 8001f98:	4b26      	ldr	r3, [pc, #152]	@ (8002034 <HAL_RCC_GetSysClockFreq+0xc0>)
 8001f9a:	613b      	str	r3, [r7, #16]
 8001f9c:	e03e      	b.n	800201c <HAL_RCC_GetSysClockFreq+0xa8>
  }
  else if (__HAL_RCC_GET_SYSCLK_SOURCE() == RCC_CFGR_SWS_PLL)
 8001f9e:	4b23      	ldr	r3, [pc, #140]	@ (800202c <HAL_RCC_GetSysClockFreq+0xb8>)
 8001fa0:	689b      	ldr	r3, [r3, #8]
 8001fa2:	f003 030c 	and.w	r3, r3, #12
 8001fa6:	2b0c      	cmp	r3, #12
 8001fa8:	d136      	bne.n	8002018 <HAL_RCC_GetSysClockFreq+0xa4>
    /* PLL used as system clock  source */

    /* PLL_VCO = ((HSE_VALUE or HSI_VALUE)/ PLLM) * PLLN
    SYSCLK = PLL_VCO / PLLR
    */
    pllsource = READ_BIT(RCC->PLLCFGR, RCC_PLLCFGR_PLLSRC);
 8001faa:	4b20      	ldr	r3, [pc, #128]	@ (800202c <HAL_RCC_GetSysClockFreq+0xb8>)
 8001fac:	68db      	ldr	r3, [r3, #12]
 8001fae:	f003 0303 	and.w	r3, r3, #3
 8001fb2:	60fb      	str	r3, [r7, #12]
    pllm = (READ_BIT(RCC->PLLCFGR, RCC_PLLCFGR_PLLM) >> RCC_PLLCFGR_PLLM_Pos) + 1U ;
 8001fb4:	4b1d      	ldr	r3, [pc, #116]	@ (800202c <HAL_RCC_GetSysClockFreq+0xb8>)
 8001fb6:	68db      	ldr	r3, [r3, #12]
 8001fb8:	091b      	lsrs	r3, r3, #4
 8001fba:	f003 030f 	and.w	r3, r3, #15
 8001fbe:	3301      	adds	r3, #1
 8001fc0:	60bb      	str	r3, [r7, #8]

    switch (pllsource)
 8001fc2:	68fb      	ldr	r3, [r7, #12]
 8001fc4:	2b03      	cmp	r3, #3
 8001fc6:	d10c      	bne.n	8001fe2 <HAL_RCC_GetSysClockFreq+0x6e>
    {
    case RCC_PLLSOURCE_HSE:  /* HSE used as PLL clock source */
      pllvco = (HSE_VALUE / pllm) * (READ_BIT(RCC->PLLCFGR, RCC_PLLCFGR_PLLN) >> RCC_PLLCFGR_PLLN_Pos);
 8001fc8:	4a1a      	ldr	r2, [pc, #104]	@ (8002034 <HAL_RCC_GetSysClockFreq+0xc0>)
 8001fca:	68bb      	ldr	r3, [r7, #8]
 8001fcc:	fbb2 f3f3 	udiv	r3, r2, r3
 8001fd0:	4a16      	ldr	r2, [pc, #88]	@ (800202c <HAL_RCC_GetSysClockFreq+0xb8>)
 8001fd2:	68d2      	ldr	r2, [r2, #12]
 8001fd4:	0a12      	lsrs	r2, r2, #8
 8001fd6:	f002 027f 	and.w	r2, r2, #127	@ 0x7f
 8001fda:	fb02 f303 	mul.w	r3, r2, r3
 8001fde:	617b      	str	r3, [r7, #20]
      break;
 8001fe0:	e00c      	b.n	8001ffc <HAL_RCC_GetSysClockFreq+0x88>

    case RCC_PLLSOURCE_HSI:  /* HSI used as PLL clock source */
    default:
      pllvco = (HSI_VALUE / pllm) * (READ_BIT(RCC->PLLCFGR, RCC_PLLCFGR_PLLN) >> RCC_PLLCFGR_PLLN_Pos);
 8001fe2:	4a13      	ldr	r2, [pc, #76]	@ (8002030 <HAL_RCC_GetSysClockFreq+0xbc>)
 8001fe4:	68bb      	ldr	r3, [r7, #8]
 8001fe6:	fbb2 f3f3 	udiv	r3, r2, r3
 8001fea:	4a10      	ldr	r2, [pc, #64]	@ (800202c <HAL_RCC_GetSysClockFreq+0xb8>)
 8001fec:	68d2      	ldr	r2, [r2, #12]
 8001fee:	0a12      	lsrs	r2, r2, #8
 8001ff0:	f002 027f 	and.w	r2, r2, #127	@ 0x7f
 8001ff4:	fb02 f303 	mul.w	r3, r2, r3
 8001ff8:	617b      	str	r3, [r7, #20]
      break;
 8001ffa:	bf00      	nop
    }
    pllr = ((READ_BIT(RCC->PLLCFGR, RCC_PLLCFGR_PLLR) >> RCC_PLLCFGR_PLLR_Pos) + 1U ) * 2U;
 8001ffc:	4b0b      	ldr	r3, [pc, #44]	@ (800202c <HAL_RCC_GetSysClockFreq+0xb8>)
 8001ffe:	68db      	ldr	r3, [r3, #12]
 8002000:	0e5b      	lsrs	r3, r3, #25
 8002002:	f003 0303 	and.w	r3, r3, #3
 8002006:	3301      	adds	r3, #1
 8002008:	005b      	lsls	r3, r3, #1
 800200a:	607b      	str	r3, [r7, #4]
    sysclockfreq = pllvco/pllr;
 800200c:	697a      	ldr	r2, [r7, #20]
 800200e:	687b      	ldr	r3, [r7, #4]
 8002010:	fbb2 f3f3 	udiv	r3, r2, r3
 8002014:	613b      	str	r3, [r7, #16]
 8002016:	e001      	b.n	800201c <HAL_RCC_GetSysClockFreq+0xa8>
  }
  else
  {
    sysclockfreq = 0U;
 8002018:	2300      	movs	r3, #0
 800201a:	613b      	str	r3, [r7, #16]
  }

  return sysclockfreq;
 800201c:	693b      	ldr	r3, [r7, #16]
}
 800201e:	4618      	mov	r0, r3
 8002020:	371c      	adds	r7, #28
 8002022:	46bd      	mov	sp, r7
 8002024:	f85d 7b04 	ldr.w	r7, [sp], #4
 8002028:	4770      	bx	lr
 800202a:	bf00      	nop
 800202c:	40021000 	.word	0x40021000
 8002030:	00f42400 	.word	0x00f42400
 8002034:	016e3600 	.word	0x016e3600

08002038 <RCC_GetSysClockFreqFromPLLSource>:
/**
  * @brief  Compute SYSCLK frequency based on PLL SYSCLK source.
  * @retval SYSCLK frequency
  */
static uint32_t RCC_GetSysClockFreqFromPLLSource(void)
{
 8002038:	b480      	push	{r7}
 800203a:	b087      	sub	sp, #28
 800203c:	af00      	add	r7, sp, #0
  uint32_t sysclockfreq;

  /* PLL_VCO = (HSE_VALUE or HSI_VALUE/ PLLM) * PLLN
     SYSCLK = PLL_VCO / PLLR
   */
  pllsource = READ_BIT(RCC->PLLCFGR, RCC_PLLCFGR_PLLSRC);
 800203e:	4b1e      	ldr	r3, [pc, #120]	@ (80020b8 <RCC_GetSysClockFreqFromPLLSource+0x80>)
 8002040:	68db      	ldr	r3, [r3, #12]
 8002042:	f003 0303 	and.w	r3, r3, #3
 8002046:	613b      	str	r3, [r7, #16]
  pllm = (READ_BIT(RCC->PLLCFGR, RCC_PLLCFGR_PLLM) >> RCC_PLLCFGR_PLLM_Pos) + 1U ;
 8002048:	4b1b      	ldr	r3, [pc, #108]	@ (80020b8 <RCC_GetSysClockFreqFromPLLSource+0x80>)
 800204a:	68db      	ldr	r3, [r3, #12]
 800204c:	091b      	lsrs	r3, r3, #4
 800204e:	f003 030f 	and.w	r3, r3, #15
 8002052:	3301      	adds	r3, #1
 8002054:	60fb      	str	r3, [r7, #12]

  switch (pllsource)
 8002056:	693b      	ldr	r3, [r7, #16]
 8002058:	2b03      	cmp	r3, #3
 800205a:	d10c      	bne.n	8002076 <RCC_GetSysClockFreqFromPLLSource+0x3e>
  {
  case RCC_PLLSOURCE_HSE:  /* HSE used as PLL clock source */
    pllvco = (HSE_VALUE / pllm) * (READ_BIT(RCC->PLLCFGR, RCC_PLLCFGR_PLLN) >> RCC_PLLCFGR_PLLN_Pos);
 800205c:	4a17      	ldr	r2, [pc, #92]	@ (80020bc <RCC_GetSysClockFreqFromPLLSource+0x84>)
 800205e:	68fb      	ldr	r3, [r7, #12]
 8002060:	fbb2 f3f3 	udiv	r3, r2, r3
 8002064:	4a14      	ldr	r2, [pc, #80]	@ (80020b8 <RCC_GetSysClockFreqFromPLLSource+0x80>)
 8002066:	68d2      	ldr	r2, [r2, #12]
 8002068:	0a12      	lsrs	r2, r2, #8
 800206a:	f002 027f 	and.w	r2, r2, #127	@ 0x7f
 800206e:	fb02 f303 	mul.w	r3, r2, r3
 8002072:	617b      	str	r3, [r7, #20]
    break;
 8002074:	e00c      	b.n	8002090 <RCC_GetSysClockFreqFromPLLSource+0x58>

  case RCC_PLLSOURCE_HSI:  /* HSI used as PLL clock source */
  default:
    pllvco = (HSI_VALUE / pllm) * (READ_BIT(RCC->PLLCFGR, RCC_PLLCFGR_PLLN) >> RCC_PLLCFGR_PLLN_Pos);
 8002076:	4a12      	ldr	r2, [pc, #72]	@ (80020c0 <RCC_GetSysClockFreqFromPLLSource+0x88>)
 8002078:	68fb      	ldr	r3, [r7, #12]
 800207a:	fbb2 f3f3 	udiv	r3, r2, r3
 800207e:	4a0e      	ldr	r2, [pc, #56]	@ (80020b8 <RCC_GetSysClockFreqFromPLLSource+0x80>)
 8002080:	68d2      	ldr	r2, [r2, #12]
 8002082:	0a12      	lsrs	r2, r2, #8
 8002084:	f002 027f 	and.w	r2, r2, #127	@ 0x7f
 8002088:	fb02 f303 	mul.w	r3, r2, r3
 800208c:	617b      	str	r3, [r7, #20]
    break;
 800208e:	bf00      	nop
  }

  pllr = ((READ_BIT(RCC->PLLCFGR, RCC_PLLCFGR_PLLR) >> RCC_PLLCFGR_PLLR_Pos) + 1U ) * 2U;
 8002090:	4b09      	ldr	r3, [pc, #36]	@ (80020b8 <RCC_GetSysClockFreqFromPLLSource+0x80>)
 8002092:	68db      	ldr	r3, [r3, #12]
 8002094:	0e5b      	lsrs	r3, r3, #25
 8002096:	f003 0303 	and.w	r3, r3, #3
 800209a:	3301      	adds	r3, #1
 800209c:	005b      	lsls	r3, r3, #1
 800209e:	60bb      	str	r3, [r7, #8]
  sysclockfreq = pllvco/pllr;
 80020a0:	697a      	ldr	r2, [r7, #20]
 80020a2:	68bb      	ldr	r3, [r7, #8]
 80020a4:	fbb2 f3f3 	udiv	r3, r2, r3
 80020a8:	607b      	str	r3, [r7, #4]

  return sysclockfreq;
 80020aa:	687b      	ldr	r3, [r7, #4]
}
 80020ac:	4618      	mov	r0, r3
 80020ae:	371c      	adds	r7, #28
 80020b0:	46bd      	mov	sp, r7
 80020b2:	f85d 7b04 	ldr.w	r7, [sp], #4
 80020b6:	4770      	bx	lr
 80020b8:	40021000 	.word	0x40021000
 80020bc:	016e3600 	.word	0x016e3600
 80020c0:	00f42400 	.word	0x00f42400

080020c4 <HAL_TIM_Base_Init>:
  *         Ex: call @ref HAL_TIM_Base_DeInit() before HAL_TIM_Base_Init()
  * @param  htim TIM Base handle
  * @retval HAL status
  */
HAL_StatusTypeDef HAL_TIM_Base_Init(TIM_HandleTypeDef *htim)
{
 80020c4:	b580      	push	{r7, lr}
 80020c6:	b082      	sub	sp, #8
 80020c8:	af00      	add	r7, sp, #0
 80020ca:	6078      	str	r0, [r7, #4]
  /* Check the TIM handle allocation */
  if (htim == NULL)
 80020cc:	687b      	ldr	r3, [r7, #4]
 80020ce:	2b00      	cmp	r3, #0
 80020d0:	d101      	bne.n	80020d6 <HAL_TIM_Base_Init+0x12>
  {
    return HAL_ERROR;
 80020d2:	2301      	movs	r3, #1
 80020d4:	e049      	b.n	800216a <HAL_TIM_Base_Init+0xa6>
  assert_param(IS_TIM_COUNTER_MODE(htim->Init.CounterMode));
  assert_param(IS_TIM_CLOCKDIVISION_DIV(htim->Init.ClockDivision));
  assert_param(IS_TIM_PERIOD(htim, htim->Init.Period));
  assert_param(IS_TIM_AUTORELOAD_PRELOAD(htim->Init.AutoReloadPreload));

  if (htim->State == HAL_TIM_STATE_RESET)
 80020d6:	687b      	ldr	r3, [r7, #4]
 80020d8:	f893 303d 	ldrb.w	r3, [r3, #61]	@ 0x3d
 80020dc:	b2db      	uxtb	r3, r3
 80020de:	2b00      	cmp	r3, #0
 80020e0:	d106      	bne.n	80020f0 <HAL_TIM_Base_Init+0x2c>
  {
    /* Allocate lock resource and initialize it */
    htim->Lock = HAL_UNLOCKED;
 80020e2:	687b      	ldr	r3, [r7, #4]
 80020e4:	2200      	movs	r2, #0
 80020e6:	f883 203c 	strb.w	r2, [r3, #60]	@ 0x3c
    }
    /* Init the low level hardware : GPIO, CLOCK, NVIC */
    htim->Base_MspInitCallback(htim);
#else
    /* Init the low level hardware : GPIO, CLOCK, NVIC */
    HAL_TIM_Base_MspInit(htim);
 80020ea:	6878      	ldr	r0, [r7, #4]
 80020ec:	f7fe fb3e 	bl	800076c <HAL_TIM_Base_MspInit>
#endif /* USE_HAL_TIM_REGISTER_CALLBACKS */
  }

  /* Set the TIM state */
  htim->State = HAL_TIM_STATE_BUSY;
 80020f0:	687b      	ldr	r3, [r7, #4]
 80020f2:	2202      	movs	r2, #2
 80020f4:	f883 203d 	strb.w	r2, [r3, #61]	@ 0x3d

  /* Set the Time Base configuration */
  TIM_Base_SetConfig(htim->Instance, &htim->Init);
 80020f8:	687b      	ldr	r3, [r7, #4]
 80020fa:	681a      	ldr	r2, [r3, #0]
 80020fc:	687b      	ldr	r3, [r7, #4]
 80020fe:	3304      	adds	r3, #4
 8002100:	4619      	mov	r1, r3
 8002102:	4610      	mov	r0, r2
 8002104:	f000 f8a6 	bl	8002254 <TIM_Base_SetConfig>

  /* Initialize the DMA burst operation state */
  htim->DMABurstState = HAL_DMA_BURST_STATE_READY;
 8002108:	687b      	ldr	r3, [r7, #4]
 800210a:	2201      	movs	r2, #1
 800210c:	f883 2048 	strb.w	r2, [r3, #72]	@ 0x48

  /* Initialize the TIM channels state */
  TIM_CHANNEL_STATE_SET_ALL(htim, HAL_TIM_CHANNEL_STATE_READY);
 8002110:	687b      	ldr	r3, [r7, #4]
 8002112:	2201      	movs	r2, #1
 8002114:	f883 203e 	strb.w	r2, [r3, #62]	@ 0x3e
 8002118:	687b      	ldr	r3, [r7, #4]
 800211a:	2201      	movs	r2, #1
 800211c:	f883 203f 	strb.w	r2, [r3, #63]	@ 0x3f
 8002120:	687b      	ldr	r3, [r7, #4]
 8002122:	2201      	movs	r2, #1
 8002124:	f883 2040 	strb.w	r2, [r3, #64]	@ 0x40
 8002128:	687b      	ldr	r3, [r7, #4]
 800212a:	2201      	movs	r2, #1
 800212c:	f883 2041 	strb.w	r2, [r3, #65]	@ 0x41
 8002130:	687b      	ldr	r3, [r7, #4]
 8002132:	2201      	movs	r2, #1
 8002134:	f883 2042 	strb.w	r2, [r3, #66]	@ 0x42
 8002138:	687b      	ldr	r3, [r7, #4]
 800213a:	2201      	movs	r2, #1
 800213c:	f883 2043 	strb.w	r2, [r3, #67]	@ 0x43
  TIM_CHANNEL_N_STATE_SET_ALL(htim, HAL_TIM_CHANNEL_STATE_READY);
 8002140:	687b      	ldr	r3, [r7, #4]
 8002142:	2201      	movs	r2, #1
 8002144:	f883 2044 	strb.w	r2, [r3, #68]	@ 0x44
 8002148:	687b      	ldr	r3, [r7, #4]
 800214a:	2201      	movs	r2, #1
 800214c:	f883 2045 	strb.w	r2, [r3, #69]	@ 0x45
 8002150:	687b      	ldr	r3, [r7, #4]
 8002152:	2201      	movs	r2, #1
 8002154:	f883 2046 	strb.w	r2, [r3, #70]	@ 0x46
 8002158:	687b      	ldr	r3, [r7, #4]
 800215a:	2201      	movs	r2, #1
 800215c:	f883 2047 	strb.w	r2, [r3, #71]	@ 0x47

  /* Initialize the TIM state*/
  htim->State = HAL_TIM_STATE_READY;
 8002160:	687b      	ldr	r3, [r7, #4]
 8002162:	2201      	movs	r2, #1
 8002164:	f883 203d 	strb.w	r2, [r3, #61]	@ 0x3d

  return HAL_OK;
 8002168:	2300      	movs	r3, #0
}
 800216a:	4618      	mov	r0, r3
 800216c:	3708      	adds	r7, #8
 800216e:	46bd      	mov	sp, r7
 8002170:	bd80      	pop	{r7, pc}
	...

08002174 <HAL_TIM_Base_Start_IT>:
  * @brief  Starts the TIM Base generation in interrupt mode.
  * @param  htim TIM Base handle
  * @retval HAL status
  */
HAL_StatusTypeDef HAL_TIM_Base_Start_IT(TIM_HandleTypeDef *htim)
{
 8002174:	b480      	push	{r7}
 8002176:	b085      	sub	sp, #20
 8002178:	af00      	add	r7, sp, #0
 800217a:	6078      	str	r0, [r7, #4]

  /* Check the parameters */
  assert_param(IS_TIM_INSTANCE(htim->Instance));

  /* Check the TIM state */
  if (htim->State != HAL_TIM_STATE_READY)
 800217c:	687b      	ldr	r3, [r7, #4]
 800217e:	f893 303d 	ldrb.w	r3, [r3, #61]	@ 0x3d
 8002182:	b2db      	uxtb	r3, r3
 8002184:	2b01      	cmp	r3, #1
 8002186:	d001      	beq.n	800218c <HAL_TIM_Base_Start_IT+0x18>
  {
    return HAL_ERROR;
 8002188:	2301      	movs	r3, #1
 800218a:	e04f      	b.n	800222c <HAL_TIM_Base_Start_IT+0xb8>
  }

  /* Set the TIM state */
  htim->State = HAL_TIM_STATE_BUSY;
 800218c:	687b      	ldr	r3, [r7, #4]
 800218e:	2202      	movs	r2, #2
 8002190:	f883 203d 	strb.w	r2, [r3, #61]	@ 0x3d

  /* Enable the TIM Update interrupt */
  __HAL_TIM_ENABLE_IT(htim, TIM_IT_UPDATE);
 8002194:	687b      	ldr	r3, [r7, #4]
 8002196:	681b      	ldr	r3, [r3, #0]
 8002198:	68da      	ldr	r2, [r3, #12]
 800219a:	687b      	ldr	r3, [r7, #4]
 800219c:	681b      	ldr	r3, [r3, #0]
 800219e:	f042 0201 	orr.w	r2, r2, #1
 80021a2:	60da      	str	r2, [r3, #12]

  /* Enable the Peripheral, except in trigger mode where enable is automatically done with trigger */
  if (IS_TIM_SLAVE_INSTANCE(htim->Instance))
 80021a4:	687b      	ldr	r3, [r7, #4]
 80021a6:	681b      	ldr	r3, [r3, #0]
 80021a8:	4a23      	ldr	r2, [pc, #140]	@ (8002238 <HAL_TIM_Base_Start_IT+0xc4>)
 80021aa:	4293      	cmp	r3, r2
 80021ac:	d01d      	beq.n	80021ea <HAL_TIM_Base_Start_IT+0x76>
 80021ae:	687b      	ldr	r3, [r7, #4]
 80021b0:	681b      	ldr	r3, [r3, #0]
 80021b2:	f1b3 4f80 	cmp.w	r3, #1073741824	@ 0x40000000
 80021b6:	d018      	beq.n	80021ea <HAL_TIM_Base_Start_IT+0x76>
 80021b8:	687b      	ldr	r3, [r7, #4]
 80021ba:	681b      	ldr	r3, [r3, #0]
 80021bc:	4a1f      	ldr	r2, [pc, #124]	@ (800223c <HAL_TIM_Base_Start_IT+0xc8>)
 80021be:	4293      	cmp	r3, r2
 80021c0:	d013      	beq.n	80021ea <HAL_TIM_Base_Start_IT+0x76>
 80021c2:	687b      	ldr	r3, [r7, #4]
 80021c4:	681b      	ldr	r3, [r3, #0]
 80021c6:	4a1e      	ldr	r2, [pc, #120]	@ (8002240 <HAL_TIM_Base_Start_IT+0xcc>)
 80021c8:	4293      	cmp	r3, r2
 80021ca:	d00e      	beq.n	80021ea <HAL_TIM_Base_Start_IT+0x76>
 80021cc:	687b      	ldr	r3, [r7, #4]
 80021ce:	681b      	ldr	r3, [r3, #0]
 80021d0:	4a1c      	ldr	r2, [pc, #112]	@ (8002244 <HAL_TIM_Base_Start_IT+0xd0>)
 80021d2:	4293      	cmp	r3, r2
 80021d4:	d009      	beq.n	80021ea <HAL_TIM_Base_Start_IT+0x76>
 80021d6:	687b      	ldr	r3, [r7, #4]
 80021d8:	681b      	ldr	r3, [r3, #0]
 80021da:	4a1b      	ldr	r2, [pc, #108]	@ (8002248 <HAL_TIM_Base_Start_IT+0xd4>)
 80021dc:	4293      	cmp	r3, r2
 80021de:	d004      	beq.n	80021ea <HAL_TIM_Base_Start_IT+0x76>
 80021e0:	687b      	ldr	r3, [r7, #4]
 80021e2:	681b      	ldr	r3, [r3, #0]
 80021e4:	4a19      	ldr	r2, [pc, #100]	@ (800224c <HAL_TIM_Base_Start_IT+0xd8>)
 80021e6:	4293      	cmp	r3, r2
 80021e8:	d115      	bne.n	8002216 <HAL_TIM_Base_Start_IT+0xa2>
  {
    tmpsmcr = htim->Instance->SMCR & TIM_SMCR_SMS;
 80021ea:	687b      	ldr	r3, [r7, #4]
 80021ec:	681b      	ldr	r3, [r3, #0]
 80021ee:	689a      	ldr	r2, [r3, #8]
 80021f0:	4b17      	ldr	r3, [pc, #92]	@ (8002250 <HAL_TIM_Base_Start_IT+0xdc>)
 80021f2:	4013      	ands	r3, r2
 80021f4:	60fb      	str	r3, [r7, #12]
    if (!IS_TIM_SLAVEMODE_TRIGGER_ENABLED(tmpsmcr))
 80021f6:	68fb      	ldr	r3, [r7, #12]
 80021f8:	2b06      	cmp	r3, #6
 80021fa:	d015      	beq.n	8002228 <HAL_TIM_Base_Start_IT+0xb4>
 80021fc:	68fb      	ldr	r3, [r7, #12]
 80021fe:	f5b3 3f80 	cmp.w	r3, #65536	@ 0x10000
 8002202:	d011      	beq.n	8002228 <HAL_TIM_Base_Start_IT+0xb4>
    {
      __HAL_TIM_ENABLE(htim);
 8002204:	687b      	ldr	r3, [r7, #4]
 8002206:	681b      	ldr	r3, [r3, #0]
 8002208:	681a      	ldr	r2, [r3, #0]
 800220a:	687b      	ldr	r3, [r7, #4]
 800220c:	681b      	ldr	r3, [r3, #0]
 800220e:	f042 0201 	orr.w	r2, r2, #1
 8002212:	601a      	str	r2, [r3, #0]
    if (!IS_TIM_SLAVEMODE_TRIGGER_ENABLED(tmpsmcr))
 8002214:	e008      	b.n	8002228 <HAL_TIM_Base_Start_IT+0xb4>
    }
  }
  else
  {
    __HAL_TIM_ENABLE(htim);
 8002216:	687b      	ldr	r3, [r7, #4]
 8002218:	681b      	ldr	r3, [r3, #0]
 800221a:	681a      	ldr	r2, [r3, #0]
 800221c:	687b      	ldr	r3, [r7, #4]
 800221e:	681b      	ldr	r3, [r3, #0]
 8002220:	f042 0201 	orr.w	r2, r2, #1
 8002224:	601a      	str	r2, [r3, #0]
 8002226:	e000      	b.n	800222a <HAL_TIM_Base_Start_IT+0xb6>
    if (!IS_TIM_SLAVEMODE_TRIGGER_ENABLED(tmpsmcr))
 8002228:	bf00      	nop
  }

  /* Return function status */
  return HAL_OK;
 800222a:	2300      	movs	r3, #0
}
 800222c:	4618      	mov	r0, r3
 800222e:	3714      	adds	r7, #20
 8002230:	46bd      	mov	sp, r7
 8002232:	f85d 7b04 	ldr.w	r7, [sp], #4
 8002236:	4770      	bx	lr
 8002238:	40012c00 	.word	0x40012c00
 800223c:	40000400 	.word	0x40000400
 8002240:	40000800 	.word	0x40000800
 8002244:	40013400 	.word	0x40013400
 8002248:	40014000 	.word	0x40014000
 800224c:	40015000 	.word	0x40015000
 8002250:	00010007 	.word	0x00010007

08002254 <TIM_Base_SetConfig>:
  * @param  TIMx TIM peripheral
  * @param  Structure TIM Base configuration structure
  * @retval None
  */
void TIM_Base_SetConfig(TIM_TypeDef *TIMx, const TIM_Base_InitTypeDef *Structure)
{
 8002254:	b480      	push	{r7}
 8002256:	b085      	sub	sp, #20
 8002258:	af00      	add	r7, sp, #0
 800225a:	6078      	str	r0, [r7, #4]
 800225c:	6039      	str	r1, [r7, #0]
  uint32_t tmpcr1;
  tmpcr1 = TIMx->CR1;
 800225e:	687b      	ldr	r3, [r7, #4]
 8002260:	681b      	ldr	r3, [r3, #0]
 8002262:	60fb      	str	r3, [r7, #12]

  /* Set TIM Time Base Unit parameters ---------------------------------------*/
  if (IS_TIM_COUNTER_MODE_SELECT_INSTANCE(TIMx))
 8002264:	687b      	ldr	r3, [r7, #4]
 8002266:	4a45      	ldr	r2, [pc, #276]	@ (800237c <TIM_Base_SetConfig+0x128>)
 8002268:	4293      	cmp	r3, r2
 800226a:	d013      	beq.n	8002294 <TIM_Base_SetConfig+0x40>
 800226c:	687b      	ldr	r3, [r7, #4]
 800226e:	f1b3 4f80 	cmp.w	r3, #1073741824	@ 0x40000000
 8002272:	d00f      	beq.n	8002294 <TIM_Base_SetConfig+0x40>
 8002274:	687b      	ldr	r3, [r7, #4]
 8002276:	4a42      	ldr	r2, [pc, #264]	@ (8002380 <TIM_Base_SetConfig+0x12c>)
 8002278:	4293      	cmp	r3, r2
 800227a:	d00b      	beq.n	8002294 <TIM_Base_SetConfig+0x40>
 800227c:	687b      	ldr	r3, [r7, #4]
 800227e:	4a41      	ldr	r2, [pc, #260]	@ (8002384 <TIM_Base_SetConfig+0x130>)
 8002280:	4293      	cmp	r3, r2
 8002282:	d007      	beq.n	8002294 <TIM_Base_SetConfig+0x40>
 8002284:	687b      	ldr	r3, [r7, #4]
 8002286:	4a40      	ldr	r2, [pc, #256]	@ (8002388 <TIM_Base_SetConfig+0x134>)
 8002288:	4293      	cmp	r3, r2
 800228a:	d003      	beq.n	8002294 <TIM_Base_SetConfig+0x40>
 800228c:	687b      	ldr	r3, [r7, #4]
 800228e:	4a3f      	ldr	r2, [pc, #252]	@ (800238c <TIM_Base_SetConfig+0x138>)
 8002290:	4293      	cmp	r3, r2
 8002292:	d108      	bne.n	80022a6 <TIM_Base_SetConfig+0x52>
  {
    /* Select the Counter Mode */
    tmpcr1 &= ~(TIM_CR1_DIR | TIM_CR1_CMS);
 8002294:	68fb      	ldr	r3, [r7, #12]
 8002296:	f023 0370 	bic.w	r3, r3, #112	@ 0x70
 800229a:	60fb      	str	r3, [r7, #12]
    tmpcr1 |= Structure->CounterMode;
 800229c:	683b      	ldr	r3, [r7, #0]
 800229e:	685b      	ldr	r3, [r3, #4]
 80022a0:	68fa      	ldr	r2, [r7, #12]
 80022a2:	4313      	orrs	r3, r2
 80022a4:	60fb      	str	r3, [r7, #12]
  }

  if (IS_TIM_CLOCK_DIVISION_INSTANCE(TIMx))
 80022a6:	687b      	ldr	r3, [r7, #4]
 80022a8:	4a34      	ldr	r2, [pc, #208]	@ (800237c <TIM_Base_SetConfig+0x128>)
 80022aa:	4293      	cmp	r3, r2
 80022ac:	d01f      	beq.n	80022ee <TIM_Base_SetConfig+0x9a>
 80022ae:	687b      	ldr	r3, [r7, #4]
 80022b0:	f1b3 4f80 	cmp.w	r3, #1073741824	@ 0x40000000
 80022b4:	d01b      	beq.n	80022ee <TIM_Base_SetConfig+0x9a>
 80022b6:	687b      	ldr	r3, [r7, #4]
 80022b8:	4a31      	ldr	r2, [pc, #196]	@ (8002380 <TIM_Base_SetConfig+0x12c>)
 80022ba:	4293      	cmp	r3, r2
 80022bc:	d017      	beq.n	80022ee <TIM_Base_SetConfig+0x9a>
 80022be:	687b      	ldr	r3, [r7, #4]
 80022c0:	4a30      	ldr	r2, [pc, #192]	@ (8002384 <TIM_Base_SetConfig+0x130>)
 80022c2:	4293      	cmp	r3, r2
 80022c4:	d013      	beq.n	80022ee <TIM_Base_SetConfig+0x9a>
 80022c6:	687b      	ldr	r3, [r7, #4]
 80022c8:	4a2f      	ldr	r2, [pc, #188]	@ (8002388 <TIM_Base_SetConfig+0x134>)
 80022ca:	4293      	cmp	r3, r2
 80022cc:	d00f      	beq.n	80022ee <TIM_Base_SetConfig+0x9a>
 80022ce:	687b      	ldr	r3, [r7, #4]
 80022d0:	4a2f      	ldr	r2, [pc, #188]	@ (8002390 <TIM_Base_SetConfig+0x13c>)
 80022d2:	4293      	cmp	r3, r2
 80022d4:	d00b      	beq.n	80022ee <TIM_Base_SetConfig+0x9a>
 80022d6:	687b      	ldr	r3, [r7, #4]
 80022d8:	4a2e      	ldr	r2, [pc, #184]	@ (8002394 <TIM_Base_SetConfig+0x140>)
 80022da:	4293      	cmp	r3, r2
 80022dc:	d007      	beq.n	80022ee <TIM_Base_SetConfig+0x9a>
 80022de:	687b      	ldr	r3, [r7, #4]
 80022e0:	4a2d      	ldr	r2, [pc, #180]	@ (8002398 <TIM_Base_SetConfig+0x144>)
 80022e2:	4293      	cmp	r3, r2
 80022e4:	d003      	beq.n	80022ee <TIM_Base_SetConfig+0x9a>
 80022e6:	687b      	ldr	r3, [r7, #4]
 80022e8:	4a28      	ldr	r2, [pc, #160]	@ (800238c <TIM_Base_SetConfig+0x138>)
 80022ea:	4293      	cmp	r3, r2
 80022ec:	d108      	bne.n	8002300 <TIM_Base_SetConfig+0xac>
  {
    /* Set the clock division */
    tmpcr1 &= ~TIM_CR1_CKD;
 80022ee:	68fb      	ldr	r3, [r7, #12]
 80022f0:	f423 7340 	bic.w	r3, r3, #768	@ 0x300
 80022f4:	60fb      	str	r3, [r7, #12]
    tmpcr1 |= (uint32_t)Structure->ClockDivision;
 80022f6:	683b      	ldr	r3, [r7, #0]
 80022f8:	68db      	ldr	r3, [r3, #12]
 80022fa:	68fa      	ldr	r2, [r7, #12]
 80022fc:	4313      	orrs	r3, r2
 80022fe:	60fb      	str	r3, [r7, #12]
  }

  /* Set the auto-reload preload */
  MODIFY_REG(tmpcr1, TIM_CR1_ARPE, Structure->AutoReloadPreload);
 8002300:	68fb      	ldr	r3, [r7, #12]
 8002302:	f023 0280 	bic.w	r2, r3, #128	@ 0x80
 8002306:	683b      	ldr	r3, [r7, #0]
 8002308:	695b      	ldr	r3, [r3, #20]
 800230a:	4313      	orrs	r3, r2
 800230c:	60fb      	str	r3, [r7, #12]

  /* Set the Autoreload value */
  TIMx->ARR = (uint32_t)Structure->Period ;
 800230e:	683b      	ldr	r3, [r7, #0]
 8002310:	689a      	ldr	r2, [r3, #8]
 8002312:	687b      	ldr	r3, [r7, #4]
 8002314:	62da      	str	r2, [r3, #44]	@ 0x2c

  /* Set the Prescaler value */
  TIMx->PSC = Structure->Prescaler;
 8002316:	683b      	ldr	r3, [r7, #0]
 8002318:	681a      	ldr	r2, [r3, #0]
 800231a:	687b      	ldr	r3, [r7, #4]
 800231c:	629a      	str	r2, [r3, #40]	@ 0x28

  if (IS_TIM_REPETITION_COUNTER_INSTANCE(TIMx))
 800231e:	687b      	ldr	r3, [r7, #4]
 8002320:	4a16      	ldr	r2, [pc, #88]	@ (800237c <TIM_Base_SetConfig+0x128>)
 8002322:	4293      	cmp	r3, r2
 8002324:	d013      	beq.n	800234e <TIM_Base_SetConfig+0xfa>
 8002326:	687b      	ldr	r3, [r7, #4]
 8002328:	4a17      	ldr	r2, [pc, #92]	@ (8002388 <TIM_Base_SetConfig+0x134>)
 800232a:	4293      	cmp	r3, r2
 800232c:	d00f      	beq.n	800234e <TIM_Base_SetConfig+0xfa>
 800232e:	687b      	ldr	r3, [r7, #4]
 8002330:	4a17      	ldr	r2, [pc, #92]	@ (8002390 <TIM_Base_SetConfig+0x13c>)
 8002332:	4293      	cmp	r3, r2
 8002334:	d00b      	beq.n	800234e <TIM_Base_SetConfig+0xfa>
 8002336:	687b      	ldr	r3, [r7, #4]
 8002338:	4a16      	ldr	r2, [pc, #88]	@ (8002394 <TIM_Base_SetConfig+0x140>)
 800233a:	4293      	cmp	r3, r2
 800233c:	d007      	beq.n	800234e <TIM_Base_SetConfig+0xfa>
 800233e:	687b      	ldr	r3, [r7, #4]
 8002340:	4a15      	ldr	r2, [pc, #84]	@ (8002398 <TIM_Base_SetConfig+0x144>)
 8002342:	4293      	cmp	r3, r2
 8002344:	d003      	beq.n	800234e <TIM_Base_SetConfig+0xfa>
 8002346:	687b      	ldr	r3, [r7, #4]
 8002348:	4a10      	ldr	r2, [pc, #64]	@ (800238c <TIM_Base_SetConfig+0x138>)
 800234a:	4293      	cmp	r3, r2
 800234c:	d103      	bne.n	8002356 <TIM_Base_SetConfig+0x102>
  {
    /* Set the Repetition Counter value */
    TIMx->RCR = Structure->RepetitionCounter;
 800234e:	683b      	ldr	r3, [r7, #0]
 8002350:	691a      	ldr	r2, [r3, #16]
 8002352:	687b      	ldr	r3, [r7, #4]
 8002354:	631a      	str	r2, [r3, #48]	@ 0x30
  }

  /* Disable Update Event (UEV) with Update Generation (UG)
     by changing Update Request Source (URS) to avoid Update flag (UIF) */
  SET_BIT(TIMx->CR1, TIM_CR1_URS);
 8002356:	687b      	ldr	r3, [r7, #4]
 8002358:	681b      	ldr	r3, [r3, #0]
 800235a:	f043 0204 	orr.w	r2, r3, #4
 800235e:	687b      	ldr	r3, [r7, #4]
 8002360:	601a      	str	r2, [r3, #0]

  /* Generate an update event to reload the Prescaler
     and the repetition counter (only for advanced timer) value immediately */
  TIMx->EGR = TIM_EGR_UG;
 8002362:	687b      	ldr	r3, [r7, #4]
 8002364:	2201      	movs	r2, #1
 8002366:	615a      	str	r2, [r3, #20]

  TIMx->CR1 = tmpcr1;
 8002368:	687b      	ldr	r3, [r7, #4]
 800236a:	68fa      	ldr	r2, [r7, #12]
 800236c:	601a      	str	r2, [r3, #0]
}
 800236e:	bf00      	nop
 8002370:	3714      	adds	r7, #20
 8002372:	46bd      	mov	sp, r7
 8002374:	f85d 7b04 	ldr.w	r7, [sp], #4
 8002378:	4770      	bx	lr
 800237a:	bf00      	nop
 800237c:	40012c00 	.word	0x40012c00
 8002380:	40000400 	.word	0x40000400
 8002384:	40000800 	.word	0x40000800
 8002388:	40013400 	.word	0x40013400
 800238c:	40015000 	.word	0x40015000
 8002390:	40014000 	.word	0x40014000
 8002394:	40014400 	.word	0x40014400
 8002398:	40014800 	.word	0x40014800

0800239c <HAL_UART_Receive_IT>:
  * @param pData Pointer to data buffer (u8 or u16 data elements).
  * @param Size  Amount of data elements (u8 or u16) to be received.
  * @retval HAL status
  */
HAL_StatusTypeDef HAL_UART_Receive_IT(UART_HandleTypeDef *huart, uint8_t *pData, uint16_t Size)
{
 800239c:	b580      	push	{r7, lr}
 800239e:	b08a      	sub	sp, #40	@ 0x28
 80023a0:	af00      	add	r7, sp, #0
 80023a2:	60f8      	str	r0, [r7, #12]
 80023a4:	60b9      	str	r1, [r7, #8]
 80023a6:	4613      	mov	r3, r2
 80023a8:	80fb      	strh	r3, [r7, #6]
  /* Check that a Rx process is not already ongoing */
  if (huart->RxState == HAL_UART_STATE_READY)
 80023aa:	68fb      	ldr	r3, [r7, #12]
 80023ac:	f8d3 308c 	ldr.w	r3, [r3, #140]	@ 0x8c
 80023b0:	2b20      	cmp	r3, #32
 80023b2:	d137      	bne.n	8002424 <HAL_UART_Receive_IT+0x88>
  {
    if ((pData == NULL) || (Size == 0U))
 80023b4:	68bb      	ldr	r3, [r7, #8]
 80023b6:	2b00      	cmp	r3, #0
 80023b8:	d002      	beq.n	80023c0 <HAL_UART_Receive_IT+0x24>
 80023ba:	88fb      	ldrh	r3, [r7, #6]
 80023bc:	2b00      	cmp	r3, #0
 80023be:	d101      	bne.n	80023c4 <HAL_UART_Receive_IT+0x28>
    {
      return HAL_ERROR;
 80023c0:	2301      	movs	r3, #1
 80023c2:	e030      	b.n	8002426 <HAL_UART_Receive_IT+0x8a>
    }

    /* Set Reception type to Standard reception */
    huart->ReceptionType = HAL_UART_RECEPTION_STANDARD;
 80023c4:	68fb      	ldr	r3, [r7, #12]
 80023c6:	2200      	movs	r2, #0
 80023c8:	66da      	str	r2, [r3, #108]	@ 0x6c

    if (!(IS_LPUART_INSTANCE(huart->Instance)))
 80023ca:	68fb      	ldr	r3, [r7, #12]
 80023cc:	681b      	ldr	r3, [r3, #0]
 80023ce:	4a18      	ldr	r2, [pc, #96]	@ (8002430 <HAL_UART_Receive_IT+0x94>)
 80023d0:	4293      	cmp	r3, r2
 80023d2:	d01f      	beq.n	8002414 <HAL_UART_Receive_IT+0x78>
    {
      /* Check that USART RTOEN bit is set */
      if (READ_BIT(huart->Instance->CR2, USART_CR2_RTOEN) != 0U)
 80023d4:	68fb      	ldr	r3, [r7, #12]
 80023d6:	681b      	ldr	r3, [r3, #0]
 80023d8:	685b      	ldr	r3, [r3, #4]
 80023da:	f403 0300 	and.w	r3, r3, #8388608	@ 0x800000
 80023de:	2b00      	cmp	r3, #0
 80023e0:	d018      	beq.n	8002414 <HAL_UART_Receive_IT+0x78>
      {
        /* Enable the UART Receiver Timeout Interrupt */
        ATOMIC_SET_BIT(huart->Instance->CR1, USART_CR1_RTOIE);
 80023e2:	68fb      	ldr	r3, [r7, #12]
 80023e4:	681b      	ldr	r3, [r3, #0]
 80023e6:	617b      	str	r3, [r7, #20]
 */
__STATIC_FORCEINLINE uint32_t __LDREXW(volatile uint32_t *addr)
{
    uint32_t result;

   __ASM volatile ("ldrex %0, %1" : "=r" (result) : "Q" (*addr) );
 80023e8:	697b      	ldr	r3, [r7, #20]
 80023ea:	e853 3f00 	ldrex	r3, [r3]
 80023ee:	613b      	str	r3, [r7, #16]
   return(result);
 80023f0:	693b      	ldr	r3, [r7, #16]
 80023f2:	f043 6380 	orr.w	r3, r3, #67108864	@ 0x4000000
 80023f6:	627b      	str	r3, [r7, #36]	@ 0x24
 80023f8:	68fb      	ldr	r3, [r7, #12]
 80023fa:	681b      	ldr	r3, [r3, #0]
 80023fc:	461a      	mov	r2, r3
 80023fe:	6a7b      	ldr	r3, [r7, #36]	@ 0x24
 8002400:	623b      	str	r3, [r7, #32]
 8002402:	61fa      	str	r2, [r7, #28]
 */
__STATIC_FORCEINLINE uint32_t __STREXW(uint32_t value, volatile uint32_t *addr)
{
   uint32_t result;

   __ASM volatile ("strex %0, %2, %1" : "=&r" (result), "=Q" (*addr) : "r" (value) );
 8002404:	69f9      	ldr	r1, [r7, #28]
 8002406:	6a3a      	ldr	r2, [r7, #32]
 8002408:	e841 2300 	strex	r3, r2, [r1]
 800240c:	61bb      	str	r3, [r7, #24]
   return(result);
 800240e:	69bb      	ldr	r3, [r7, #24]
 8002410:	2b00      	cmp	r3, #0
 8002412:	d1e6      	bne.n	80023e2 <HAL_UART_Receive_IT+0x46>
      }
    }

    return (UART_Start_Receive_IT(huart, pData, Size));
 8002414:	88fb      	ldrh	r3, [r7, #6]
 8002416:	461a      	mov	r2, r3
 8002418:	68b9      	ldr	r1, [r7, #8]
 800241a:	68f8      	ldr	r0, [r7, #12]
 800241c:	f000 fb76 	bl	8002b0c <UART_Start_Receive_IT>
 8002420:	4603      	mov	r3, r0
 8002422:	e000      	b.n	8002426 <HAL_UART_Receive_IT+0x8a>
  }
  else
  {
    return HAL_BUSY;
 8002424:	2302      	movs	r3, #2
  }
}
 8002426:	4618      	mov	r0, r3
 8002428:	3728      	adds	r7, #40	@ 0x28
 800242a:	46bd      	mov	sp, r7
 800242c:	bd80      	pop	{r7, pc}
 800242e:	bf00      	nop
 8002430:	40008000 	.word	0x40008000

08002434 <HAL_UART_IRQHandler>:
  * @brief Handle UART interrupt request.
  * @param huart UART handle.
  * @retval None
  */
void HAL_UART_IRQHandler(UART_HandleTypeDef *huart)
{
 8002434:	b580      	push	{r7, lr}
 8002436:	b0ba      	sub	sp, #232	@ 0xe8
 8002438:	af00      	add	r7, sp, #0
 800243a:	6078      	str	r0, [r7, #4]
  uint32_t isrflags   = READ_REG(huart->Instance->ISR);
 800243c:	687b      	ldr	r3, [r7, #4]
 800243e:	681b      	ldr	r3, [r3, #0]
 8002440:	69db      	ldr	r3, [r3, #28]
 8002442:	f8c7 30e4 	str.w	r3, [r7, #228]	@ 0xe4
  uint32_t cr1its     = READ_REG(huart->Instance->CR1);
 8002446:	687b      	ldr	r3, [r7, #4]
 8002448:	681b      	ldr	r3, [r3, #0]
 800244a:	681b      	ldr	r3, [r3, #0]
 800244c:	f8c7 30e0 	str.w	r3, [r7, #224]	@ 0xe0
  uint32_t cr3its     = READ_REG(huart->Instance->CR3);
 8002450:	687b      	ldr	r3, [r7, #4]
 8002452:	681b      	ldr	r3, [r3, #0]
 8002454:	689b      	ldr	r3, [r3, #8]
 8002456:	f8c7 30dc 	str.w	r3, [r7, #220]	@ 0xdc

  uint32_t errorflags;
  uint32_t errorcode;

  /* If no error occurs */
  errorflags = (isrflags & (uint32_t)(USART_ISR_PE | USART_ISR_FE | USART_ISR_ORE | USART_ISR_NE | USART_ISR_RTOF));
 800245a:	f8d7 20e4 	ldr.w	r2, [r7, #228]	@ 0xe4
 800245e:	f640 030f 	movw	r3, #2063	@ 0x80f
 8002462:	4013      	ands	r3, r2
 8002464:	f8c7 30d8 	str.w	r3, [r7, #216]	@ 0xd8
  if (errorflags == 0U)
 8002468:	f8d7 30d8 	ldr.w	r3, [r7, #216]	@ 0xd8
 800246c:	2b00      	cmp	r3, #0
 800246e:	d11b      	bne.n	80024a8 <HAL_UART_IRQHandler+0x74>
  {
    /* UART in mode Receiver ---------------------------------------------------*/
    if (((isrflags & USART_ISR_RXNE_RXFNE) != 0U)
 8002470:	f8d7 30e4 	ldr.w	r3, [r7, #228]	@ 0xe4
 8002474:	f003 0320 	and.w	r3, r3, #32
 8002478:	2b00      	cmp	r3, #0
 800247a:	d015      	beq.n	80024a8 <HAL_UART_IRQHandler+0x74>
        && (((cr1its & USART_CR1_RXNEIE_RXFNEIE) != 0U)
 800247c:	f8d7 30e0 	ldr.w	r3, [r7, #224]	@ 0xe0
 8002480:	f003 0320 	and.w	r3, r3, #32
 8002484:	2b00      	cmp	r3, #0
 8002486:	d105      	bne.n	8002494 <HAL_UART_IRQHandler+0x60>
            || ((cr3its & USART_CR3_RXFTIE) != 0U)))
 8002488:	f8d7 30dc 	ldr.w	r3, [r7, #220]	@ 0xdc
 800248c:	f003 5380 	and.w	r3, r3, #268435456	@ 0x10000000
 8002490:	2b00      	cmp	r3, #0
 8002492:	d009      	beq.n	80024a8 <HAL_UART_IRQHandler+0x74>
    {
      if (huart->RxISR != NULL)
 8002494:	687b      	ldr	r3, [r7, #4]
 8002496:	6f5b      	ldr	r3, [r3, #116]	@ 0x74
 8002498:	2b00      	cmp	r3, #0
 800249a:	f000 8300 	beq.w	8002a9e <HAL_UART_IRQHandler+0x66a>
      {
        huart->RxISR(huart);
 800249e:	687b      	ldr	r3, [r7, #4]
 80024a0:	6f5b      	ldr	r3, [r3, #116]	@ 0x74
 80024a2:	6878      	ldr	r0, [r7, #4]
 80024a4:	4798      	blx	r3
      }
      return;
 80024a6:	e2fa      	b.n	8002a9e <HAL_UART_IRQHandler+0x66a>
    }
  }

  /* If some errors occur */
  if ((errorflags != 0U)
 80024a8:	f8d7 30d8 	ldr.w	r3, [r7, #216]	@ 0xd8
 80024ac:	2b00      	cmp	r3, #0
 80024ae:	f000 8123 	beq.w	80026f8 <HAL_UART_IRQHandler+0x2c4>
      && ((((cr3its & (USART_CR3_RXFTIE | USART_CR3_EIE)) != 0U)
 80024b2:	f8d7 20dc 	ldr.w	r2, [r7, #220]	@ 0xdc
 80024b6:	4b8d      	ldr	r3, [pc, #564]	@ (80026ec <HAL_UART_IRQHandler+0x2b8>)
 80024b8:	4013      	ands	r3, r2
 80024ba:	2b00      	cmp	r3, #0
 80024bc:	d106      	bne.n	80024cc <HAL_UART_IRQHandler+0x98>
           || ((cr1its & (USART_CR1_RXNEIE_RXFNEIE | USART_CR1_PEIE | USART_CR1_RTOIE)) != 0U))))
 80024be:	f8d7 20e0 	ldr.w	r2, [r7, #224]	@ 0xe0
 80024c2:	4b8b      	ldr	r3, [pc, #556]	@ (80026f0 <HAL_UART_IRQHandler+0x2bc>)
 80024c4:	4013      	ands	r3, r2
 80024c6:	2b00      	cmp	r3, #0
 80024c8:	f000 8116 	beq.w	80026f8 <HAL_UART_IRQHandler+0x2c4>
  {
    /* UART parity error interrupt occurred -------------------------------------*/
    if (((isrflags & USART_ISR_PE) != 0U) && ((cr1its & USART_CR1_PEIE) != 0U))
 80024cc:	f8d7 30e4 	ldr.w	r3, [r7, #228]	@ 0xe4
 80024d0:	f003 0301 	and.w	r3, r3, #1
 80024d4:	2b00      	cmp	r3, #0
 80024d6:	d011      	beq.n	80024fc <HAL_UART_IRQHandler+0xc8>
 80024d8:	f8d7 30e0 	ldr.w	r3, [r7, #224]	@ 0xe0
 80024dc:	f403 7380 	and.w	r3, r3, #256	@ 0x100
 80024e0:	2b00      	cmp	r3, #0
 80024e2:	d00b      	beq.n	80024fc <HAL_UART_IRQHandler+0xc8>
    {
      __HAL_UART_CLEAR_FLAG(huart, UART_CLEAR_PEF);
 80024e4:	687b      	ldr	r3, [r7, #4]
 80024e6:	681b      	ldr	r3, [r3, #0]
 80024e8:	2201      	movs	r2, #1
 80024ea:	621a      	str	r2, [r3, #32]

      huart->ErrorCode |= HAL_UART_ERROR_PE;
 80024ec:	687b      	ldr	r3, [r7, #4]
 80024ee:	f8d3 3090 	ldr.w	r3, [r3, #144]	@ 0x90
 80024f2:	f043 0201 	orr.w	r2, r3, #1
 80024f6:	687b      	ldr	r3, [r7, #4]
 80024f8:	f8c3 2090 	str.w	r2, [r3, #144]	@ 0x90
    }

    /* UART frame error interrupt occurred --------------------------------------*/
    if (((isrflags & USART_ISR_FE) != 0U) && ((cr3its & USART_CR3_EIE) != 0U))
 80024fc:	f8d7 30e4 	ldr.w	r3, [r7, #228]	@ 0xe4
 8002500:	f003 0302 	and.w	r3, r3, #2
 8002504:	2b00      	cmp	r3, #0
 8002506:	d011      	beq.n	800252c <HAL_UART_IRQHandler+0xf8>
 8002508:	f8d7 30dc 	ldr.w	r3, [r7, #220]	@ 0xdc
 800250c:	f003 0301 	and.w	r3, r3, #1
 8002510:	2b00      	cmp	r3, #0
 8002512:	d00b      	beq.n	800252c <HAL_UART_IRQHandler+0xf8>
    {
      __HAL_UART_CLEAR_FLAG(huart, UART_CLEAR_FEF);
 8002514:	687b      	ldr	r3, [r7, #4]
 8002516:	681b      	ldr	r3, [r3, #0]
 8002518:	2202      	movs	r2, #2
 800251a:	621a      	str	r2, [r3, #32]

      huart->ErrorCode |= HAL_UART_ERROR_FE;
 800251c:	687b      	ldr	r3, [r7, #4]
 800251e:	f8d3 3090 	ldr.w	r3, [r3, #144]	@ 0x90
 8002522:	f043 0204 	orr.w	r2, r3, #4
 8002526:	687b      	ldr	r3, [r7, #4]
 8002528:	f8c3 2090 	str.w	r2, [r3, #144]	@ 0x90
    }

    /* UART noise error interrupt occurred --------------------------------------*/
    if (((isrflags & USART_ISR_NE) != 0U) && ((cr3its & USART_CR3_EIE) != 0U))
 800252c:	f8d7 30e4 	ldr.w	r3, [r7, #228]	@ 0xe4
 8002530:	f003 0304 	and.w	r3, r3, #4
 8002534:	2b00      	cmp	r3, #0
 8002536:	d011      	beq.n	800255c <HAL_UART_IRQHandler+0x128>
 8002538:	f8d7 30dc 	ldr.w	r3, [r7, #220]	@ 0xdc
 800253c:	f003 0301 	and.w	r3, r3, #1
 8002540:	2b00      	cmp	r3, #0
 8002542:	d00b      	beq.n	800255c <HAL_UART_IRQHandler+0x128>
    {
      __HAL_UART_CLEAR_FLAG(huart, UART_CLEAR_NEF);
 8002544:	687b      	ldr	r3, [r7, #4]
 8002546:	681b      	ldr	r3, [r3, #0]
 8002548:	2204      	movs	r2, #4
 800254a:	621a      	str	r2, [r3, #32]

      huart->ErrorCode |= HAL_UART_ERROR_NE;
 800254c:	687b      	ldr	r3, [r7, #4]
 800254e:	f8d3 3090 	ldr.w	r3, [r3, #144]	@ 0x90
 8002552:	f043 0202 	orr.w	r2, r3, #2
 8002556:	687b      	ldr	r3, [r7, #4]
 8002558:	f8c3 2090 	str.w	r2, [r3, #144]	@ 0x90
    }

    /* UART Over-Run interrupt occurred -----------------------------------------*/
    if (((isrflags & USART_ISR_ORE) != 0U)
 800255c:	f8d7 30e4 	ldr.w	r3, [r7, #228]	@ 0xe4
 8002560:	f003 0308 	and.w	r3, r3, #8
 8002564:	2b00      	cmp	r3, #0
 8002566:	d017      	beq.n	8002598 <HAL_UART_IRQHandler+0x164>
        && (((cr1its & USART_CR1_RXNEIE_RXFNEIE) != 0U) ||
 8002568:	f8d7 30e0 	ldr.w	r3, [r7, #224]	@ 0xe0
 800256c:	f003 0320 	and.w	r3, r3, #32
 8002570:	2b00      	cmp	r3, #0
 8002572:	d105      	bne.n	8002580 <HAL_UART_IRQHandler+0x14c>
            ((cr3its & (USART_CR3_RXFTIE | USART_CR3_EIE)) != 0U)))
 8002574:	f8d7 20dc 	ldr.w	r2, [r7, #220]	@ 0xdc
 8002578:	4b5c      	ldr	r3, [pc, #368]	@ (80026ec <HAL_UART_IRQHandler+0x2b8>)
 800257a:	4013      	ands	r3, r2
        && (((cr1its & USART_CR1_RXNEIE_RXFNEIE) != 0U) ||
 800257c:	2b00      	cmp	r3, #0
 800257e:	d00b      	beq.n	8002598 <HAL_UART_IRQHandler+0x164>
    {
      __HAL_UART_CLEAR_FLAG(huart, UART_CLEAR_OREF);
 8002580:	687b      	ldr	r3, [r7, #4]
 8002582:	681b      	ldr	r3, [r3, #0]
 8002584:	2208      	movs	r2, #8
 8002586:	621a      	str	r2, [r3, #32]

      huart->ErrorCode |= HAL_UART_ERROR_ORE;
 8002588:	687b      	ldr	r3, [r7, #4]
 800258a:	f8d3 3090 	ldr.w	r3, [r3, #144]	@ 0x90
 800258e:	f043 0208 	orr.w	r2, r3, #8
 8002592:	687b      	ldr	r3, [r7, #4]
 8002594:	f8c3 2090 	str.w	r2, [r3, #144]	@ 0x90
    }

    /* UART Receiver Timeout interrupt occurred ---------------------------------*/
    if (((isrflags & USART_ISR_RTOF) != 0U) && ((cr1its & USART_CR1_RTOIE) != 0U))
 8002598:	f8d7 30e4 	ldr.w	r3, [r7, #228]	@ 0xe4
 800259c:	f403 6300 	and.w	r3, r3, #2048	@ 0x800
 80025a0:	2b00      	cmp	r3, #0
 80025a2:	d012      	beq.n	80025ca <HAL_UART_IRQHandler+0x196>
 80025a4:	f8d7 30e0 	ldr.w	r3, [r7, #224]	@ 0xe0
 80025a8:	f003 6380 	and.w	r3, r3, #67108864	@ 0x4000000
 80025ac:	2b00      	cmp	r3, #0
 80025ae:	d00c      	beq.n	80025ca <HAL_UART_IRQHandler+0x196>
    {
      __HAL_UART_CLEAR_FLAG(huart, UART_CLEAR_RTOF);
 80025b0:	687b      	ldr	r3, [r7, #4]
 80025b2:	681b      	ldr	r3, [r3, #0]
 80025b4:	f44f 6200 	mov.w	r2, #2048	@ 0x800
 80025b8:	621a      	str	r2, [r3, #32]

      huart->ErrorCode |= HAL_UART_ERROR_RTO;
 80025ba:	687b      	ldr	r3, [r7, #4]
 80025bc:	f8d3 3090 	ldr.w	r3, [r3, #144]	@ 0x90
 80025c0:	f043 0220 	orr.w	r2, r3, #32
 80025c4:	687b      	ldr	r3, [r7, #4]
 80025c6:	f8c3 2090 	str.w	r2, [r3, #144]	@ 0x90
    }

    /* Call UART Error Call back function if need be ----------------------------*/
    if (huart->ErrorCode != HAL_UART_ERROR_NONE)
 80025ca:	687b      	ldr	r3, [r7, #4]
 80025cc:	f8d3 3090 	ldr.w	r3, [r3, #144]	@ 0x90
 80025d0:	2b00      	cmp	r3, #0
 80025d2:	f000 8266 	beq.w	8002aa2 <HAL_UART_IRQHandler+0x66e>
    {
      /* UART in mode Receiver --------------------------------------------------*/
      if (((isrflags & USART_ISR_RXNE_RXFNE) != 0U)
 80025d6:	f8d7 30e4 	ldr.w	r3, [r7, #228]	@ 0xe4
 80025da:	f003 0320 	and.w	r3, r3, #32
 80025de:	2b00      	cmp	r3, #0
 80025e0:	d013      	beq.n	800260a <HAL_UART_IRQHandler+0x1d6>
          && (((cr1its & USART_CR1_RXNEIE_RXFNEIE) != 0U)
 80025e2:	f8d7 30e0 	ldr.w	r3, [r7, #224]	@ 0xe0
 80025e6:	f003 0320 	and.w	r3, r3, #32
 80025ea:	2b00      	cmp	r3, #0
 80025ec:	d105      	bne.n	80025fa <HAL_UART_IRQHandler+0x1c6>
              || ((cr3its & USART_CR3_RXFTIE) != 0U)))
 80025ee:	f8d7 30dc 	ldr.w	r3, [r7, #220]	@ 0xdc
 80025f2:	f003 5380 	and.w	r3, r3, #268435456	@ 0x10000000
 80025f6:	2b00      	cmp	r3, #0
 80025f8:	d007      	beq.n	800260a <HAL_UART_IRQHandler+0x1d6>
      {
        if (huart->RxISR != NULL)
 80025fa:	687b      	ldr	r3, [r7, #4]
 80025fc:	6f5b      	ldr	r3, [r3, #116]	@ 0x74
 80025fe:	2b00      	cmp	r3, #0
 8002600:	d003      	beq.n	800260a <HAL_UART_IRQHandler+0x1d6>
        {
          huart->RxISR(huart);
 8002602:	687b      	ldr	r3, [r7, #4]
 8002604:	6f5b      	ldr	r3, [r3, #116]	@ 0x74
 8002606:	6878      	ldr	r0, [r7, #4]
 8002608:	4798      	blx	r3
      /* If Error is to be considered as blocking :
          - Receiver Timeout error in Reception
          - Overrun error in Reception
          - any error occurs in DMA mode reception
      */
      errorcode = huart->ErrorCode;
 800260a:	687b      	ldr	r3, [r7, #4]
 800260c:	f8d3 3090 	ldr.w	r3, [r3, #144]	@ 0x90
 8002610:	f8c7 30d4 	str.w	r3, [r7, #212]	@ 0xd4
      if ((HAL_IS_BIT_SET(huart->Instance->CR3, USART_CR3_DMAR)) ||
 8002614:	687b      	ldr	r3, [r7, #4]
 8002616:	681b      	ldr	r3, [r3, #0]
 8002618:	689b      	ldr	r3, [r3, #8]
 800261a:	f003 0340 	and.w	r3, r3, #64	@ 0x40
 800261e:	2b40      	cmp	r3, #64	@ 0x40
 8002620:	d005      	beq.n	800262e <HAL_UART_IRQHandler+0x1fa>
          ((errorcode & (HAL_UART_ERROR_RTO | HAL_UART_ERROR_ORE)) != 0U))
 8002622:	f8d7 30d4 	ldr.w	r3, [r7, #212]	@ 0xd4
 8002626:	f003 0328 	and.w	r3, r3, #40	@ 0x28
      if ((HAL_IS_BIT_SET(huart->Instance->CR3, USART_CR3_DMAR)) ||
 800262a:	2b00      	cmp	r3, #0
 800262c:	d054      	beq.n	80026d8 <HAL_UART_IRQHandler+0x2a4>
      {
        /* Blocking error : transfer is aborted
           Set the UART state ready to be able to start again the process,
           Disable Rx Interrupts, and disable Rx DMA request, if ongoing */
        UART_EndRxTransfer(huart);
 800262e:	6878      	ldr	r0, [r7, #4]
 8002630:	f000 fb8e 	bl	8002d50 <UART_EndRxTransfer>

        /* Abort the UART DMA Rx channel if enabled */
        if (HAL_IS_BIT_SET(huart->Instance->CR3, USART_CR3_DMAR))
 8002634:	687b      	ldr	r3, [r7, #4]
 8002636:	681b      	ldr	r3, [r3, #0]
 8002638:	689b      	ldr	r3, [r3, #8]
 800263a:	f003 0340 	and.w	r3, r3, #64	@ 0x40
 800263e:	2b40      	cmp	r3, #64	@ 0x40
 8002640:	d146      	bne.n	80026d0 <HAL_UART_IRQHandler+0x29c>
        {
          /* Disable the UART DMA Rx request if enabled */
          ATOMIC_CLEAR_BIT(huart->Instance->CR3, USART_CR3_DMAR);
 8002642:	687b      	ldr	r3, [r7, #4]
 8002644:	681b      	ldr	r3, [r3, #0]
 8002646:	3308      	adds	r3, #8
 8002648:	f8c7 309c 	str.w	r3, [r7, #156]	@ 0x9c
   __ASM volatile ("ldrex %0, %1" : "=r" (result) : "Q" (*addr) );
 800264c:	f8d7 309c 	ldr.w	r3, [r7, #156]	@ 0x9c
 8002650:	e853 3f00 	ldrex	r3, [r3]
 8002654:	f8c7 3098 	str.w	r3, [r7, #152]	@ 0x98
   return(result);
 8002658:	f8d7 3098 	ldr.w	r3, [r7, #152]	@ 0x98
 800265c:	f023 0340 	bic.w	r3, r3, #64	@ 0x40
 8002660:	f8c7 30d0 	str.w	r3, [r7, #208]	@ 0xd0
 8002664:	687b      	ldr	r3, [r7, #4]
 8002666:	681b      	ldr	r3, [r3, #0]
 8002668:	3308      	adds	r3, #8
 800266a:	f8d7 20d0 	ldr.w	r2, [r7, #208]	@ 0xd0
 800266e:	f8c7 20a8 	str.w	r2, [r7, #168]	@ 0xa8
 8002672:	f8c7 30a4 	str.w	r3, [r7, #164]	@ 0xa4
   __ASM volatile ("strex %0, %2, %1" : "=&r" (result), "=Q" (*addr) : "r" (value) );
 8002676:	f8d7 10a4 	ldr.w	r1, [r7, #164]	@ 0xa4
 800267a:	f8d7 20a8 	ldr.w	r2, [r7, #168]	@ 0xa8
 800267e:	e841 2300 	strex	r3, r2, [r1]
 8002682:	f8c7 30a0 	str.w	r3, [r7, #160]	@ 0xa0
   return(result);
 8002686:	f8d7 30a0 	ldr.w	r3, [r7, #160]	@ 0xa0
 800268a:	2b00      	cmp	r3, #0
 800268c:	d1d9      	bne.n	8002642 <HAL_UART_IRQHandler+0x20e>

          /* Abort the UART DMA Rx channel */
          if (huart->hdmarx != NULL)
 800268e:	687b      	ldr	r3, [r7, #4]
 8002690:	f8d3 3080 	ldr.w	r3, [r3, #128]	@ 0x80
 8002694:	2b00      	cmp	r3, #0
 8002696:	d017      	beq.n	80026c8 <HAL_UART_IRQHandler+0x294>
          {
            /* Set the UART DMA Abort callback :
               will lead to call HAL_UART_ErrorCallback() at end of DMA abort procedure */
            huart->hdmarx->XferAbortCallback = UART_DMAAbortOnError;
 8002698:	687b      	ldr	r3, [r7, #4]
 800269a:	f8d3 3080 	ldr.w	r3, [r3, #128]	@ 0x80
 800269e:	4a15      	ldr	r2, [pc, #84]	@ (80026f4 <HAL_UART_IRQHandler+0x2c0>)
 80026a0:	639a      	str	r2, [r3, #56]	@ 0x38

            /* Abort DMA RX */
            if (HAL_DMA_Abort_IT(huart->hdmarx) != HAL_OK)
 80026a2:	687b      	ldr	r3, [r7, #4]
 80026a4:	f8d3 3080 	ldr.w	r3, [r3, #128]	@ 0x80
 80026a8:	4618      	mov	r0, r3
 80026aa:	f7fe fab0 	bl	8000c0e <HAL_DMA_Abort_IT>
 80026ae:	4603      	mov	r3, r0
 80026b0:	2b00      	cmp	r3, #0
 80026b2:	d019      	beq.n	80026e8 <HAL_UART_IRQHandler+0x2b4>
            {
              /* Call Directly huart->hdmarx->XferAbortCallback function in case of error */
              huart->hdmarx->XferAbortCallback(huart->hdmarx);
 80026b4:	687b      	ldr	r3, [r7, #4]
 80026b6:	f8d3 3080 	ldr.w	r3, [r3, #128]	@ 0x80
 80026ba:	6b9b      	ldr	r3, [r3, #56]	@ 0x38
 80026bc:	687a      	ldr	r2, [r7, #4]
 80026be:	f8d2 2080 	ldr.w	r2, [r2, #128]	@ 0x80
 80026c2:	4610      	mov	r0, r2
 80026c4:	4798      	blx	r3
        if (HAL_IS_BIT_SET(huart->Instance->CR3, USART_CR3_DMAR))
 80026c6:	e00f      	b.n	80026e8 <HAL_UART_IRQHandler+0x2b4>
#if (USE_HAL_UART_REGISTER_CALLBACKS == 1)
            /*Call registered error callback*/
            huart->ErrorCallback(huart);
#else
            /*Call legacy weak error callback*/
            HAL_UART_ErrorCallback(huart);
 80026c8:	6878      	ldr	r0, [r7, #4]
 80026ca:	f000 fa09 	bl	8002ae0 <HAL_UART_ErrorCallback>
        if (HAL_IS_BIT_SET(huart->Instance->CR3, USART_CR3_DMAR))
 80026ce:	e00b      	b.n	80026e8 <HAL_UART_IRQHandler+0x2b4>
#if (USE_HAL_UART_REGISTER_CALLBACKS == 1)
          /*Call registered error callback*/
          huart->ErrorCallback(huart);
#else
          /*Call legacy weak error callback*/
          HAL_UART_ErrorCallback(huart);
 80026d0:	6878      	ldr	r0, [r7, #4]
 80026d2:	f000 fa05 	bl	8002ae0 <HAL_UART_ErrorCallback>
        if (HAL_IS_BIT_SET(huart->Instance->CR3, USART_CR3_DMAR))
 80026d6:	e007      	b.n	80026e8 <HAL_UART_IRQHandler+0x2b4>
#if (USE_HAL_UART_REGISTER_CALLBACKS == 1)
        /*Call registered error callback*/
        huart->ErrorCallback(huart);
#else
        /*Call legacy weak error callback*/
        HAL_UART_ErrorCallback(huart);
 80026d8:	6878      	ldr	r0, [r7, #4]
 80026da:	f000 fa01 	bl	8002ae0 <HAL_UART_ErrorCallback>
#endif /* USE_HAL_UART_REGISTER_CALLBACKS */
        huart->ErrorCode = HAL_UART_ERROR_NONE;
 80026de:	687b      	ldr	r3, [r7, #4]
 80026e0:	2200      	movs	r2, #0
 80026e2:	f8c3 2090 	str.w	r2, [r3, #144]	@ 0x90
      }
    }
    return;
 80026e6:	e1dc      	b.n	8002aa2 <HAL_UART_IRQHandler+0x66e>
        if (HAL_IS_BIT_SET(huart->Instance->CR3, USART_CR3_DMAR))
 80026e8:	bf00      	nop
    return;
 80026ea:	e1da      	b.n	8002aa2 <HAL_UART_IRQHandler+0x66e>
 80026ec:	10000001 	.word	0x10000001
 80026f0:	04000120 	.word	0x04000120
 80026f4:	08002e1d 	.word	0x08002e1d

  } /* End if some error occurs */

  /* Check current reception Mode :
     If Reception till IDLE event has been selected : */
  if ((huart->ReceptionType == HAL_UART_RECEPTION_TOIDLE)
 80026f8:	687b      	ldr	r3, [r7, #4]
 80026fa:	6edb      	ldr	r3, [r3, #108]	@ 0x6c
 80026fc:	2b01      	cmp	r3, #1
 80026fe:	f040 8170 	bne.w	80029e2 <HAL_UART_IRQHandler+0x5ae>
      && ((isrflags & USART_ISR_IDLE) != 0U)
 8002702:	f8d7 30e4 	ldr.w	r3, [r7, #228]	@ 0xe4
 8002706:	f003 0310 	and.w	r3, r3, #16
 800270a:	2b00      	cmp	r3, #0
 800270c:	f000 8169 	beq.w	80029e2 <HAL_UART_IRQHandler+0x5ae>
      && ((cr1its & USART_ISR_IDLE) != 0U))
 8002710:	f8d7 30e0 	ldr.w	r3, [r7, #224]	@ 0xe0
 8002714:	f003 0310 	and.w	r3, r3, #16
 8002718:	2b00      	cmp	r3, #0
 800271a:	f000 8162 	beq.w	80029e2 <HAL_UART_IRQHandler+0x5ae>
  {
    __HAL_UART_CLEAR_FLAG(huart, UART_CLEAR_IDLEF);
 800271e:	687b      	ldr	r3, [r7, #4]
 8002720:	681b      	ldr	r3, [r3, #0]
 8002722:	2210      	movs	r2, #16
 8002724:	621a      	str	r2, [r3, #32]

    /* Check if DMA mode is enabled in UART */
    if (HAL_IS_BIT_SET(huart->Instance->CR3, USART_CR3_DMAR))
 8002726:	687b      	ldr	r3, [r7, #4]
 8002728:	681b      	ldr	r3, [r3, #0]
 800272a:	689b      	ldr	r3, [r3, #8]
 800272c:	f003 0340 	and.w	r3, r3, #64	@ 0x40
 8002730:	2b40      	cmp	r3, #64	@ 0x40
 8002732:	f040 80d8 	bne.w	80028e6 <HAL_UART_IRQHandler+0x4b2>
    {
      /* DMA mode enabled */
      /* Check received length : If all expected data are received, do nothing,
         (DMA cplt callback will be called).
         Otherwise, if at least one data has already been received, IDLE event is to be notified to user */
      uint16_t nb_remaining_rx_data = (uint16_t) __HAL_DMA_GET_COUNTER(huart->hdmarx);
 8002736:	687b      	ldr	r3, [r7, #4]
 8002738:	f8d3 3080 	ldr.w	r3, [r3, #128]	@ 0x80
 800273c:	681b      	ldr	r3, [r3, #0]
 800273e:	685b      	ldr	r3, [r3, #4]
 8002740:	f8a7 30be 	strh.w	r3, [r7, #190]	@ 0xbe
      if ((nb_remaining_rx_data > 0U)
 8002744:	f8b7 30be 	ldrh.w	r3, [r7, #190]	@ 0xbe
 8002748:	2b00      	cmp	r3, #0
 800274a:	f000 80af 	beq.w	80028ac <HAL_UART_IRQHandler+0x478>
          && (nb_remaining_rx_data < huart->RxXferSize))
 800274e:	687b      	ldr	r3, [r7, #4]
 8002750:	f8b3 305c 	ldrh.w	r3, [r3, #92]	@ 0x5c
 8002754:	f8b7 20be 	ldrh.w	r2, [r7, #190]	@ 0xbe
 8002758:	429a      	cmp	r2, r3
 800275a:	f080 80a7 	bcs.w	80028ac <HAL_UART_IRQHandler+0x478>
      {
        /* Reception is not complete */
        huart->RxXferCount = nb_remaining_rx_data;
 800275e:	687b      	ldr	r3, [r7, #4]
 8002760:	f8b7 20be 	ldrh.w	r2, [r7, #190]	@ 0xbe
 8002764:	f8a3 205e 	strh.w	r2, [r3, #94]	@ 0x5e

        /* In Normal mode, end DMA xfer and HAL UART Rx process*/
        if (HAL_IS_BIT_CLR(huart->hdmarx->Instance->CCR, DMA_CCR_CIRC))
 8002768:	687b      	ldr	r3, [r7, #4]
 800276a:	f8d3 3080 	ldr.w	r3, [r3, #128]	@ 0x80
 800276e:	681b      	ldr	r3, [r3, #0]
 8002770:	681b      	ldr	r3, [r3, #0]
 8002772:	f003 0320 	and.w	r3, r3, #32
 8002776:	2b00      	cmp	r3, #0
 8002778:	f040 8087 	bne.w	800288a <HAL_UART_IRQHandler+0x456>
        {
          /* Disable PE and ERR (Frame error, noise error, overrun error) interrupts */
          ATOMIC_CLEAR_BIT(huart->Instance->CR1, USART_CR1_PEIE);
 800277c:	687b      	ldr	r3, [r7, #4]
 800277e:	681b      	ldr	r3, [r3, #0]
 8002780:	f8c7 3088 	str.w	r3, [r7, #136]	@ 0x88
   __ASM volatile ("ldrex %0, %1" : "=r" (result) : "Q" (*addr) );
 8002784:	f8d7 3088 	ldr.w	r3, [r7, #136]	@ 0x88
 8002788:	e853 3f00 	ldrex	r3, [r3]
 800278c:	f8c7 3084 	str.w	r3, [r7, #132]	@ 0x84
   return(result);
 8002790:	f8d7 3084 	ldr.w	r3, [r7, #132]	@ 0x84
 8002794:	f423 7380 	bic.w	r3, r3, #256	@ 0x100
 8002798:	f8c7 30b8 	str.w	r3, [r7, #184]	@ 0xb8
 800279c:	687b      	ldr	r3, [r7, #4]
 800279e:	681b      	ldr	r3, [r3, #0]
 80027a0:	461a      	mov	r2, r3
 80027a2:	f8d7 30b8 	ldr.w	r3, [r7, #184]	@ 0xb8
 80027a6:	f8c7 3094 	str.w	r3, [r7, #148]	@ 0x94
 80027aa:	f8c7 2090 	str.w	r2, [r7, #144]	@ 0x90
   __ASM volatile ("strex %0, %2, %1" : "=&r" (result), "=Q" (*addr) : "r" (value) );
 80027ae:	f8d7 1090 	ldr.w	r1, [r7, #144]	@ 0x90
 80027b2:	f8d7 2094 	ldr.w	r2, [r7, #148]	@ 0x94
 80027b6:	e841 2300 	strex	r3, r2, [r1]
 80027ba:	f8c7 308c 	str.w	r3, [r7, #140]	@ 0x8c
   return(result);
 80027be:	f8d7 308c 	ldr.w	r3, [r7, #140]	@ 0x8c
 80027c2:	2b00      	cmp	r3, #0
 80027c4:	d1da      	bne.n	800277c <HAL_UART_IRQHandler+0x348>
          ATOMIC_CLEAR_BIT(huart->Instance->CR3, USART_CR3_EIE);
 80027c6:	687b      	ldr	r3, [r7, #4]
 80027c8:	681b      	ldr	r3, [r3, #0]
 80027ca:	3308      	adds	r3, #8
 80027cc:	677b      	str	r3, [r7, #116]	@ 0x74
   __ASM volatile ("ldrex %0, %1" : "=r" (result) : "Q" (*addr) );
 80027ce:	6f7b      	ldr	r3, [r7, #116]	@ 0x74
 80027d0:	e853 3f00 	ldrex	r3, [r3]
 80027d4:	673b      	str	r3, [r7, #112]	@ 0x70
   return(result);
 80027d6:	6f3b      	ldr	r3, [r7, #112]	@ 0x70
 80027d8:	f023 0301 	bic.w	r3, r3, #1
 80027dc:	f8c7 30b4 	str.w	r3, [r7, #180]	@ 0xb4
 80027e0:	687b      	ldr	r3, [r7, #4]
 80027e2:	681b      	ldr	r3, [r3, #0]
 80027e4:	3308      	adds	r3, #8
 80027e6:	f8d7 20b4 	ldr.w	r2, [r7, #180]	@ 0xb4
 80027ea:	f8c7 2080 	str.w	r2, [r7, #128]	@ 0x80
 80027ee:	67fb      	str	r3, [r7, #124]	@ 0x7c
   __ASM volatile ("strex %0, %2, %1" : "=&r" (result), "=Q" (*addr) : "r" (value) );
 80027f0:	6ff9      	ldr	r1, [r7, #124]	@ 0x7c
 80027f2:	f8d7 2080 	ldr.w	r2, [r7, #128]	@ 0x80
 80027f6:	e841 2300 	strex	r3, r2, [r1]
 80027fa:	67bb      	str	r3, [r7, #120]	@ 0x78
   return(result);
 80027fc:	6fbb      	ldr	r3, [r7, #120]	@ 0x78
 80027fe:	2b00      	cmp	r3, #0
 8002800:	d1e1      	bne.n	80027c6 <HAL_UART_IRQHandler+0x392>

          /* Disable the DMA transfer for the receiver request by resetting the DMAR bit
             in the UART CR3 register */
          ATOMIC_CLEAR_BIT(huart->Instance->CR3, USART_CR3_DMAR);
 8002802:	687b      	ldr	r3, [r7, #4]
 8002804:	681b      	ldr	r3, [r3, #0]
 8002806:	3308      	adds	r3, #8
 8002808:	663b      	str	r3, [r7, #96]	@ 0x60
   __ASM volatile ("ldrex %0, %1" : "=r" (result) : "Q" (*addr) );
 800280a:	6e3b      	ldr	r3, [r7, #96]	@ 0x60
 800280c:	e853 3f00 	ldrex	r3, [r3]
 8002810:	65fb      	str	r3, [r7, #92]	@ 0x5c
   return(result);
 8002812:	6dfb      	ldr	r3, [r7, #92]	@ 0x5c
 8002814:	f023 0340 	bic.w	r3, r3, #64	@ 0x40
 8002818:	f8c7 30b0 	str.w	r3, [r7, #176]	@ 0xb0
 800281c:	687b      	ldr	r3, [r7, #4]
 800281e:	681b      	ldr	r3, [r3, #0]
 8002820:	3308      	adds	r3, #8
 8002822:	f8d7 20b0 	ldr.w	r2, [r7, #176]	@ 0xb0
 8002826:	66fa      	str	r2, [r7, #108]	@ 0x6c
 8002828:	66bb      	str	r3, [r7, #104]	@ 0x68
   __ASM volatile ("strex %0, %2, %1" : "=&r" (result), "=Q" (*addr) : "r" (value) );
 800282a:	6eb9      	ldr	r1, [r7, #104]	@ 0x68
 800282c:	6efa      	ldr	r2, [r7, #108]	@ 0x6c
 800282e:	e841 2300 	strex	r3, r2, [r1]
 8002832:	667b      	str	r3, [r7, #100]	@ 0x64
   return(result);
 8002834:	6e7b      	ldr	r3, [r7, #100]	@ 0x64
 8002836:	2b00      	cmp	r3, #0
 8002838:	d1e3      	bne.n	8002802 <HAL_UART_IRQHandler+0x3ce>

          /* At end of Rx process, restore huart->RxState to Ready */
          huart->RxState = HAL_UART_STATE_READY;
 800283a:	687b      	ldr	r3, [r7, #4]
 800283c:	2220      	movs	r2, #32
 800283e:	f8c3 208c 	str.w	r2, [r3, #140]	@ 0x8c
          huart->ReceptionType = HAL_UART_RECEPTION_STANDARD;
 8002842:	687b      	ldr	r3, [r7, #4]
 8002844:	2200      	movs	r2, #0
 8002846:	66da      	str	r2, [r3, #108]	@ 0x6c

          ATOMIC_CLEAR_BIT(huart->Instance->CR1, USART_CR1_IDLEIE);
 8002848:	687b      	ldr	r3, [r7, #4]
 800284a:	681b      	ldr	r3, [r3, #0]
 800284c:	64fb      	str	r3, [r7, #76]	@ 0x4c
   __ASM volatile ("ldrex %0, %1" : "=r" (result) : "Q" (*addr) );
 800284e:	6cfb      	ldr	r3, [r7, #76]	@ 0x4c
 8002850:	e853 3f00 	ldrex	r3, [r3]
 8002854:	64bb      	str	r3, [r7, #72]	@ 0x48
   return(result);
 8002856:	6cbb      	ldr	r3, [r7, #72]	@ 0x48
 8002858:	f023 0310 	bic.w	r3, r3, #16
 800285c:	f8c7 30ac 	str.w	r3, [r7, #172]	@ 0xac
 8002860:	687b      	ldr	r3, [r7, #4]
 8002862:	681b      	ldr	r3, [r3, #0]
 8002864:	461a      	mov	r2, r3
 8002866:	f8d7 30ac 	ldr.w	r3, [r7, #172]	@ 0xac
 800286a:	65bb      	str	r3, [r7, #88]	@ 0x58
 800286c:	657a      	str	r2, [r7, #84]	@ 0x54
   __ASM volatile ("strex %0, %2, %1" : "=&r" (result), "=Q" (*addr) : "r" (value) );
 800286e:	6d79      	ldr	r1, [r7, #84]	@ 0x54
 8002870:	6dba      	ldr	r2, [r7, #88]	@ 0x58
 8002872:	e841 2300 	strex	r3, r2, [r1]
 8002876:	653b      	str	r3, [r7, #80]	@ 0x50
   return(result);
 8002878:	6d3b      	ldr	r3, [r7, #80]	@ 0x50
 800287a:	2b00      	cmp	r3, #0
 800287c:	d1e4      	bne.n	8002848 <HAL_UART_IRQHandler+0x414>

          /* Last bytes received, so no need as the abort is immediate */
          (void)HAL_DMA_Abort(huart->hdmarx);
 800287e:	687b      	ldr	r3, [r7, #4]
 8002880:	f8d3 3080 	ldr.w	r3, [r3, #128]	@ 0x80
 8002884:	4618      	mov	r0, r3
 8002886:	f7fe f964 	bl	8000b52 <HAL_DMA_Abort>
        }

        /* Initialize type of RxEvent that correspond to RxEvent callback execution;
           In this case, Rx Event type is Idle Event */
        huart->RxEventType = HAL_UART_RXEVENT_IDLE;
 800288a:	687b      	ldr	r3, [r7, #4]
 800288c:	2202      	movs	r2, #2
 800288e:	671a      	str	r2, [r3, #112]	@ 0x70
#if (USE_HAL_UART_REGISTER_CALLBACKS == 1)
        /*Call registered Rx Event callback*/
        huart->RxEventCallback(huart, (huart->RxXferSize - huart->RxXferCount));
#else
        /*Call legacy weak Rx Event callback*/
        HAL_UARTEx_RxEventCallback(huart, (huart->RxXferSize - huart->RxXferCount));
 8002890:	687b      	ldr	r3, [r7, #4]
 8002892:	f8b3 205c 	ldrh.w	r2, [r3, #92]	@ 0x5c
 8002896:	687b      	ldr	r3, [r7, #4]
 8002898:	f8b3 305e 	ldrh.w	r3, [r3, #94]	@ 0x5e
 800289c:	b29b      	uxth	r3, r3
 800289e:	1ad3      	subs	r3, r2, r3
 80028a0:	b29b      	uxth	r3, r3
 80028a2:	4619      	mov	r1, r3
 80028a4:	6878      	ldr	r0, [r7, #4]
 80028a6:	f000 f925 	bl	8002af4 <HAL_UARTEx_RxEventCallback>
            HAL_UARTEx_RxEventCallback(huart, huart->RxXferSize);
#endif /* (USE_HAL_UART_REGISTER_CALLBACKS) */
          }
        }
      }
      return;
 80028aa:	e0fc      	b.n	8002aa6 <HAL_UART_IRQHandler+0x672>
        if (nb_remaining_rx_data == huart->RxXferSize)
 80028ac:	687b      	ldr	r3, [r7, #4]
 80028ae:	f8b3 305c 	ldrh.w	r3, [r3, #92]	@ 0x5c
 80028b2:	f8b7 20be 	ldrh.w	r2, [r7, #190]	@ 0xbe
 80028b6:	429a      	cmp	r2, r3
 80028b8:	f040 80f5 	bne.w	8002aa6 <HAL_UART_IRQHandler+0x672>
          if (HAL_IS_BIT_SET(huart->hdmarx->Instance->CCR, DMA_CCR_CIRC))
 80028bc:	687b      	ldr	r3, [r7, #4]
 80028be:	f8d3 3080 	ldr.w	r3, [r3, #128]	@ 0x80
 80028c2:	681b      	ldr	r3, [r3, #0]
 80028c4:	681b      	ldr	r3, [r3, #0]
 80028c6:	f003 0320 	and.w	r3, r3, #32
 80028ca:	2b20      	cmp	r3, #32
 80028cc:	f040 80eb 	bne.w	8002aa6 <HAL_UART_IRQHandler+0x672>
            huart->RxEventType = HAL_UART_RXEVENT_IDLE;
 80028d0:	687b      	ldr	r3, [r7, #4]
 80028d2:	2202      	movs	r2, #2
 80028d4:	671a      	str	r2, [r3, #112]	@ 0x70
            HAL_UARTEx_RxEventCallback(huart, huart->RxXferSize);
 80028d6:	687b      	ldr	r3, [r7, #4]
 80028d8:	f8b3 305c 	ldrh.w	r3, [r3, #92]	@ 0x5c
 80028dc:	4619      	mov	r1, r3
 80028de:	6878      	ldr	r0, [r7, #4]
 80028e0:	f000 f908 	bl	8002af4 <HAL_UARTEx_RxEventCallback>
      return;
 80028e4:	e0df      	b.n	8002aa6 <HAL_UART_IRQHandler+0x672>
    else
    {
      /* DMA mode not enabled */
      /* Check received length : If all expected data are received, do nothing.
         Otherwise, if at least one data has already been received, IDLE event is to be notified to user */
      uint16_t nb_rx_data = huart->RxXferSize - huart->RxXferCount;
 80028e6:	687b      	ldr	r3, [r7, #4]
 80028e8:	f8b3 205c 	ldrh.w	r2, [r3, #92]	@ 0x5c
 80028ec:	687b      	ldr	r3, [r7, #4]
 80028ee:	f8b3 305e 	ldrh.w	r3, [r3, #94]	@ 0x5e
 80028f2:	b29b      	uxth	r3, r3
 80028f4:	1ad3      	subs	r3, r2, r3
 80028f6:	f8a7 30ce 	strh.w	r3, [r7, #206]	@ 0xce
      if ((huart->RxXferCount > 0U)
 80028fa:	687b      	ldr	r3, [r7, #4]
 80028fc:	f8b3 305e 	ldrh.w	r3, [r3, #94]	@ 0x5e
 8002900:	b29b      	uxth	r3, r3
 8002902:	2b00      	cmp	r3, #0
 8002904:	f000 80d1 	beq.w	8002aaa <HAL_UART_IRQHandler+0x676>
          && (nb_rx_data > 0U))
 8002908:	f8b7 30ce 	ldrh.w	r3, [r7, #206]	@ 0xce
 800290c:	2b00      	cmp	r3, #0
 800290e:	f000 80cc 	beq.w	8002aaa <HAL_UART_IRQHandler+0x676>
      {
        /* Disable the UART Parity Error Interrupt and RXNE interrupts */
        ATOMIC_CLEAR_BIT(huart->Instance->CR1, (USART_CR1_RXNEIE_RXFNEIE | USART_CR1_PEIE));
 8002912:	687b      	ldr	r3, [r7, #4]
 8002914:	681b      	ldr	r3, [r3, #0]
 8002916:	63bb      	str	r3, [r7, #56]	@ 0x38
   __ASM volatile ("ldrex %0, %1" : "=r" (result) : "Q" (*addr) );
 8002918:	6bbb      	ldr	r3, [r7, #56]	@ 0x38
 800291a:	e853 3f00 	ldrex	r3, [r3]
 800291e:	637b      	str	r3, [r7, #52]	@ 0x34
   return(result);
 8002920:	6b7b      	ldr	r3, [r7, #52]	@ 0x34
 8002922:	f423 7390 	bic.w	r3, r3, #288	@ 0x120
 8002926:	f8c7 30c8 	str.w	r3, [r7, #200]	@ 0xc8
 800292a:	687b      	ldr	r3, [r7, #4]
 800292c:	681b      	ldr	r3, [r3, #0]
 800292e:	461a      	mov	r2, r3
 8002930:	f8d7 30c8 	ldr.w	r3, [r7, #200]	@ 0xc8
 8002934:	647b      	str	r3, [r7, #68]	@ 0x44
 8002936:	643a      	str	r2, [r7, #64]	@ 0x40
   __ASM volatile ("strex %0, %2, %1" : "=&r" (result), "=Q" (*addr) : "r" (value) );
 8002938:	6c39      	ldr	r1, [r7, #64]	@ 0x40
 800293a:	6c7a      	ldr	r2, [r7, #68]	@ 0x44
 800293c:	e841 2300 	strex	r3, r2, [r1]
 8002940:	63fb      	str	r3, [r7, #60]	@ 0x3c
   return(result);
 8002942:	6bfb      	ldr	r3, [r7, #60]	@ 0x3c
 8002944:	2b00      	cmp	r3, #0
 8002946:	d1e4      	bne.n	8002912 <HAL_UART_IRQHandler+0x4de>

        /* Disable the UART Error Interrupt:(Frame error, noise error, overrun error) and RX FIFO Threshold interrupt */
        ATOMIC_CLEAR_BIT(huart->Instance->CR3, (USART_CR3_EIE | USART_CR3_RXFTIE));
 8002948:	687b      	ldr	r3, [r7, #4]
 800294a:	681b      	ldr	r3, [r3, #0]
 800294c:	3308      	adds	r3, #8
 800294e:	627b      	str	r3, [r7, #36]	@ 0x24
   __ASM volatile ("ldrex %0, %1" : "=r" (result) : "Q" (*addr) );
 8002950:	6a7b      	ldr	r3, [r7, #36]	@ 0x24
 8002952:	e853 3f00 	ldrex	r3, [r3]
 8002956:	623b      	str	r3, [r7, #32]
   return(result);
 8002958:	6a3b      	ldr	r3, [r7, #32]
 800295a:	f023 5380 	bic.w	r3, r3, #268435456	@ 0x10000000
 800295e:	f023 0301 	bic.w	r3, r3, #1
 8002962:	f8c7 30c4 	str.w	r3, [r7, #196]	@ 0xc4
 8002966:	687b      	ldr	r3, [r7, #4]
 8002968:	681b      	ldr	r3, [r3, #0]
 800296a:	3308      	adds	r3, #8
 800296c:	f8d7 20c4 	ldr.w	r2, [r7, #196]	@ 0xc4
 8002970:	633a      	str	r2, [r7, #48]	@ 0x30
 8002972:	62fb      	str	r3, [r7, #44]	@ 0x2c
   __ASM volatile ("strex %0, %2, %1" : "=&r" (result), "=Q" (*addr) : "r" (value) );
 8002974:	6af9      	ldr	r1, [r7, #44]	@ 0x2c
 8002976:	6b3a      	ldr	r2, [r7, #48]	@ 0x30
 8002978:	e841 2300 	strex	r3, r2, [r1]
 800297c:	62bb      	str	r3, [r7, #40]	@ 0x28
   return(result);
 800297e:	6abb      	ldr	r3, [r7, #40]	@ 0x28
 8002980:	2b00      	cmp	r3, #0
 8002982:	d1e1      	bne.n	8002948 <HAL_UART_IRQHandler+0x514>

        /* Rx process is completed, restore huart->RxState to Ready */
        huart->RxState = HAL_UART_STATE_READY;
 8002984:	687b      	ldr	r3, [r7, #4]
 8002986:	2220      	movs	r2, #32
 8002988:	f8c3 208c 	str.w	r2, [r3, #140]	@ 0x8c
        huart->ReceptionType = HAL_UART_RECEPTION_STANDARD;
 800298c:	687b      	ldr	r3, [r7, #4]
 800298e:	2200      	movs	r2, #0
 8002990:	66da      	str	r2, [r3, #108]	@ 0x6c

        /* Clear RxISR function pointer */
        huart->RxISR = NULL;
 8002992:	687b      	ldr	r3, [r7, #4]
 8002994:	2200      	movs	r2, #0
 8002996:	675a      	str	r2, [r3, #116]	@ 0x74

        ATOMIC_CLEAR_BIT(huart->Instance->CR1, USART_CR1_IDLEIE);
 8002998:	687b      	ldr	r3, [r7, #4]
 800299a:	681b      	ldr	r3, [r3, #0]
 800299c:	613b      	str	r3, [r7, #16]
   __ASM volatile ("ldrex %0, %1" : "=r" (result) : "Q" (*addr) );
 800299e:	693b      	ldr	r3, [r7, #16]
 80029a0:	e853 3f00 	ldrex	r3, [r3]
 80029a4:	60fb      	str	r3, [r7, #12]
   return(result);
 80029a6:	68fb      	ldr	r3, [r7, #12]
 80029a8:	f023 0310 	bic.w	r3, r3, #16
 80029ac:	f8c7 30c0 	str.w	r3, [r7, #192]	@ 0xc0
 80029b0:	687b      	ldr	r3, [r7, #4]
 80029b2:	681b      	ldr	r3, [r3, #0]
 80029b4:	461a      	mov	r2, r3
 80029b6:	f8d7 30c0 	ldr.w	r3, [r7, #192]	@ 0xc0
 80029ba:	61fb      	str	r3, [r7, #28]
 80029bc:	61ba      	str	r2, [r7, #24]
   __ASM volatile ("strex %0, %2, %1" : "=&r" (result), "=Q" (*addr) : "r" (value) );
 80029be:	69b9      	ldr	r1, [r7, #24]
 80029c0:	69fa      	ldr	r2, [r7, #28]
 80029c2:	e841 2300 	strex	r3, r2, [r1]
 80029c6:	617b      	str	r3, [r7, #20]
   return(result);
 80029c8:	697b      	ldr	r3, [r7, #20]
 80029ca:	2b00      	cmp	r3, #0
 80029cc:	d1e4      	bne.n	8002998 <HAL_UART_IRQHandler+0x564>

        /* Initialize type of RxEvent that correspond to RxEvent callback execution;
           In this case, Rx Event type is Idle Event */
        huart->RxEventType = HAL_UART_RXEVENT_IDLE;
 80029ce:	687b      	ldr	r3, [r7, #4]
 80029d0:	2202      	movs	r2, #2
 80029d2:	671a      	str	r2, [r3, #112]	@ 0x70
#if (USE_HAL_UART_REGISTER_CALLBACKS == 1)
        /*Call registered Rx complete callback*/
        huart->RxEventCallback(huart, nb_rx_data);
#else
        /*Call legacy weak Rx Event callback*/
        HAL_UARTEx_RxEventCallback(huart, nb_rx_data);
 80029d4:	f8b7 30ce 	ldrh.w	r3, [r7, #206]	@ 0xce
 80029d8:	4619      	mov	r1, r3
 80029da:	6878      	ldr	r0, [r7, #4]
 80029dc:	f000 f88a 	bl	8002af4 <HAL_UARTEx_RxEventCallback>
#endif /* (USE_HAL_UART_REGISTER_CALLBACKS) */
      }
      return;
 80029e0:	e063      	b.n	8002aaa <HAL_UART_IRQHandler+0x676>
    }
  }

  /* UART wakeup from Stop mode interrupt occurred ---------------------------*/
  if (((isrflags & USART_ISR_WUF) != 0U) && ((cr3its & USART_CR3_WUFIE) != 0U))
 80029e2:	f8d7 30e4 	ldr.w	r3, [r7, #228]	@ 0xe4
 80029e6:	f403 1380 	and.w	r3, r3, #1048576	@ 0x100000
 80029ea:	2b00      	cmp	r3, #0
 80029ec:	d00e      	beq.n	8002a0c <HAL_UART_IRQHandler+0x5d8>
 80029ee:	f8d7 30dc 	ldr.w	r3, [r7, #220]	@ 0xdc
 80029f2:	f403 0380 	and.w	r3, r3, #4194304	@ 0x400000
 80029f6:	2b00      	cmp	r3, #0
 80029f8:	d008      	beq.n	8002a0c <HAL_UART_IRQHandler+0x5d8>
  {
    __HAL_UART_CLEAR_FLAG(huart, UART_CLEAR_WUF);
 80029fa:	687b      	ldr	r3, [r7, #4]
 80029fc:	681b      	ldr	r3, [r3, #0]
 80029fe:	f44f 1280 	mov.w	r2, #1048576	@ 0x100000
 8002a02:	621a      	str	r2, [r3, #32]
#if (USE_HAL_UART_REGISTER_CALLBACKS == 1)
    /* Call registered Wakeup Callback */
    huart->WakeupCallback(huart);
#else
    /* Call legacy weak Wakeup Callback */
    HAL_UARTEx_WakeupCallback(huart);
 8002a04:	6878      	ldr	r0, [r7, #4]
 8002a06:	f000 ff63 	bl	80038d0 <HAL_UARTEx_WakeupCallback>
#endif /* USE_HAL_UART_REGISTER_CALLBACKS */
    return;
 8002a0a:	e051      	b.n	8002ab0 <HAL_UART_IRQHandler+0x67c>
  }

  /* UART in mode Transmitter ------------------------------------------------*/
  if (((isrflags & USART_ISR_TXE_TXFNF) != 0U)
 8002a0c:	f8d7 30e4 	ldr.w	r3, [r7, #228]	@ 0xe4
 8002a10:	f003 0380 	and.w	r3, r3, #128	@ 0x80
 8002a14:	2b00      	cmp	r3, #0
 8002a16:	d014      	beq.n	8002a42 <HAL_UART_IRQHandler+0x60e>
      && (((cr1its & USART_CR1_TXEIE_TXFNFIE) != 0U)
 8002a18:	f8d7 30e0 	ldr.w	r3, [r7, #224]	@ 0xe0
 8002a1c:	f003 0380 	and.w	r3, r3, #128	@ 0x80
 8002a20:	2b00      	cmp	r3, #0
 8002a22:	d105      	bne.n	8002a30 <HAL_UART_IRQHandler+0x5fc>
          || ((cr3its & USART_CR3_TXFTIE) != 0U)))
 8002a24:	f8d7 30dc 	ldr.w	r3, [r7, #220]	@ 0xdc
 8002a28:	f403 0300 	and.w	r3, r3, #8388608	@ 0x800000
 8002a2c:	2b00      	cmp	r3, #0
 8002a2e:	d008      	beq.n	8002a42 <HAL_UART_IRQHandler+0x60e>
  {
    if (huart->TxISR != NULL)
 8002a30:	687b      	ldr	r3, [r7, #4]
 8002a32:	6f9b      	ldr	r3, [r3, #120]	@ 0x78
 8002a34:	2b00      	cmp	r3, #0
 8002a36:	d03a      	beq.n	8002aae <HAL_UART_IRQHandler+0x67a>
    {
      huart->TxISR(huart);
 8002a38:	687b      	ldr	r3, [r7, #4]
 8002a3a:	6f9b      	ldr	r3, [r3, #120]	@ 0x78
 8002a3c:	6878      	ldr	r0, [r7, #4]
 8002a3e:	4798      	blx	r3
    }
    return;
 8002a40:	e035      	b.n	8002aae <HAL_UART_IRQHandler+0x67a>
  }

  /* UART in mode Transmitter (transmission end) -----------------------------*/
  if (((isrflags & USART_ISR_TC) != 0U) && ((cr1its & USART_CR1_TCIE) != 0U))
 8002a42:	f8d7 30e4 	ldr.w	r3, [r7, #228]	@ 0xe4
 8002a46:	f003 0340 	and.w	r3, r3, #64	@ 0x40
 8002a4a:	2b00      	cmp	r3, #0
 8002a4c:	d009      	beq.n	8002a62 <HAL_UART_IRQHandler+0x62e>
 8002a4e:	f8d7 30e0 	ldr.w	r3, [r7, #224]	@ 0xe0
 8002a52:	f003 0340 	and.w	r3, r3, #64	@ 0x40
 8002a56:	2b00      	cmp	r3, #0
 8002a58:	d003      	beq.n	8002a62 <HAL_UART_IRQHandler+0x62e>
  {
    UART_EndTransmit_IT(huart);
 8002a5a:	6878      	ldr	r0, [r7, #4]
 8002a5c:	f000 f9ec 	bl	8002e38 <UART_EndTransmit_IT>
    return;
 8002a60:	e026      	b.n	8002ab0 <HAL_UART_IRQHandler+0x67c>
  }

  /* UART TX Fifo Empty occurred ----------------------------------------------*/
  if (((isrflags & USART_ISR_TXFE) != 0U) && ((cr1its & USART_CR1_TXFEIE) != 0U))
 8002a62:	f8d7 30e4 	ldr.w	r3, [r7, #228]	@ 0xe4
 8002a66:	f403 0300 	and.w	r3, r3, #8388608	@ 0x800000
 8002a6a:	2b00      	cmp	r3, #0
 8002a6c:	d009      	beq.n	8002a82 <HAL_UART_IRQHandler+0x64e>
 8002a6e:	f8d7 30e0 	ldr.w	r3, [r7, #224]	@ 0xe0
 8002a72:	f003 4380 	and.w	r3, r3, #1073741824	@ 0x40000000
 8002a76:	2b00      	cmp	r3, #0
 8002a78:	d003      	beq.n	8002a82 <HAL_UART_IRQHandler+0x64e>
#if (USE_HAL_UART_REGISTER_CALLBACKS == 1)
    /* Call registered Tx Fifo Empty Callback */
    huart->TxFifoEmptyCallback(huart);
#else
    /* Call legacy weak Tx Fifo Empty Callback */
    HAL_UARTEx_TxFifoEmptyCallback(huart);
 8002a7a:	6878      	ldr	r0, [r7, #4]
 8002a7c:	f000 ff3c 	bl	80038f8 <HAL_UARTEx_TxFifoEmptyCallback>
#endif /* USE_HAL_UART_REGISTER_CALLBACKS */
    return;
 8002a80:	e016      	b.n	8002ab0 <HAL_UART_IRQHandler+0x67c>
  }

  /* UART RX Fifo Full occurred ----------------------------------------------*/
  if (((isrflags & USART_ISR_RXFF) != 0U) && ((cr1its & USART_CR1_RXFFIE) != 0U))
 8002a82:	f8d7 30e4 	ldr.w	r3, [r7, #228]	@ 0xe4
 8002a86:	f003 7380 	and.w	r3, r3, #16777216	@ 0x1000000
 8002a8a:	2b00      	cmp	r3, #0
 8002a8c:	d010      	beq.n	8002ab0 <HAL_UART_IRQHandler+0x67c>
 8002a8e:	f8d7 30e0 	ldr.w	r3, [r7, #224]	@ 0xe0
 8002a92:	2b00      	cmp	r3, #0
 8002a94:	da0c      	bge.n	8002ab0 <HAL_UART_IRQHandler+0x67c>
#if (USE_HAL_UART_REGISTER_CALLBACKS == 1)
    /* Call registered Rx Fifo Full Callback */
    huart->RxFifoFullCallback(huart);
#else
    /* Call legacy weak Rx Fifo Full Callback */
    HAL_UARTEx_RxFifoFullCallback(huart);
 8002a96:	6878      	ldr	r0, [r7, #4]
 8002a98:	f000 ff24 	bl	80038e4 <HAL_UARTEx_RxFifoFullCallback>
#endif /* USE_HAL_UART_REGISTER_CALLBACKS */
    return;
 8002a9c:	e008      	b.n	8002ab0 <HAL_UART_IRQHandler+0x67c>
      return;
 8002a9e:	bf00      	nop
 8002aa0:	e006      	b.n	8002ab0 <HAL_UART_IRQHandler+0x67c>
    return;
 8002aa2:	bf00      	nop
 8002aa4:	e004      	b.n	8002ab0 <HAL_UART_IRQHandler+0x67c>
      return;
 8002aa6:	bf00      	nop
 8002aa8:	e002      	b.n	8002ab0 <HAL_UART_IRQHandler+0x67c>
      return;
 8002aaa:	bf00      	nop
 8002aac:	e000      	b.n	8002ab0 <HAL_UART_IRQHandler+0x67c>
    return;
 8002aae:	bf00      	nop
  }
}
 8002ab0:	37e8      	adds	r7, #232	@ 0xe8
 8002ab2:	46bd      	mov	sp, r7
 8002ab4:	bd80      	pop	{r7, pc}
 8002ab6:	bf00      	nop

08002ab8 <HAL_UART_TxCpltCallback>:
  * @brief Tx Transfer completed callback.
  * @param huart UART handle.
  * @retval None
  */
__weak void HAL_UART_TxCpltCallback(UART_HandleTypeDef *huart)
{
 8002ab8:	b480      	push	{r7}
 8002aba:	b083      	sub	sp, #12
 8002abc:	af00      	add	r7, sp, #0
 8002abe:	6078      	str	r0, [r7, #4]
  UNUSED(huart);

  /* NOTE : This function should not be modified, when the callback is needed,
            the HAL_UART_TxCpltCallback can be implemented in the user file.
   */
}
 8002ac0:	bf00      	nop
 8002ac2:	370c      	adds	r7, #12
 8002ac4:	46bd      	mov	sp, r7
 8002ac6:	f85d 7b04 	ldr.w	r7, [sp], #4
 8002aca:	4770      	bx	lr

08002acc <HAL_UART_RxCpltCallback>:
  * @brief  Rx Transfer completed callback.
  * @param  huart UART handle.
  * @retval None
  */
__weak void HAL_UART_RxCpltCallback(UART_HandleTypeDef *huart)
{
 8002acc:	b480      	push	{r7}
 8002ace:	b083      	sub	sp, #12
 8002ad0:	af00      	add	r7, sp, #0
 8002ad2:	6078      	str	r0, [r7, #4]
  UNUSED(huart);

  /* NOTE : This function should not be modified, when the callback is needed,
            the HAL_UART_RxCpltCallback can be implemented in the user file.
   */
}
 8002ad4:	bf00      	nop
 8002ad6:	370c      	adds	r7, #12
 8002ad8:	46bd      	mov	sp, r7
 8002ada:	f85d 7b04 	ldr.w	r7, [sp], #4
 8002ade:	4770      	bx	lr

08002ae0 <HAL_UART_ErrorCallback>:
  * @brief  UART error callback.
  * @param  huart UART handle.
  * @retval None
  */
__weak void HAL_UART_ErrorCallback(UART_HandleTypeDef *huart)
{
 8002ae0:	b480      	push	{r7}
 8002ae2:	b083      	sub	sp, #12
 8002ae4:	af00      	add	r7, sp, #0
 8002ae6:	6078      	str	r0, [r7, #4]
  UNUSED(huart);

  /* NOTE : This function should not be modified, when the callback is needed,
            the HAL_UART_ErrorCallback can be implemented in the user file.
   */
}
 8002ae8:	bf00      	nop
 8002aea:	370c      	adds	r7, #12
 8002aec:	46bd      	mov	sp, r7
 8002aee:	f85d 7b04 	ldr.w	r7, [sp], #4
 8002af2:	4770      	bx	lr

08002af4 <HAL_UARTEx_RxEventCallback>:
  * @param  Size  Number of data available in application reception buffer (indicates a position in
  *               reception buffer until which, data are available)
  * @retval None
  */
__weak void HAL_UARTEx_RxEventCallback(UART_HandleTypeDef *huart, uint16_t Size)
{
 8002af4:	b480      	push	{r7}
 8002af6:	b083      	sub	sp, #12
 8002af8:	af00      	add	r7, sp, #0
 8002afa:	6078      	str	r0, [r7, #4]
 8002afc:	460b      	mov	r3, r1
 8002afe:	807b      	strh	r3, [r7, #2]
  UNUSED(Size);

  /* NOTE : This function should not be modified, when the callback is needed,
            the HAL_UARTEx_RxEventCallback can be implemented in the user file.
   */
}
 8002b00:	bf00      	nop
 8002b02:	370c      	adds	r7, #12
 8002b04:	46bd      	mov	sp, r7
 8002b06:	f85d 7b04 	ldr.w	r7, [sp], #4
 8002b0a:	4770      	bx	lr

08002b0c <UART_Start_Receive_IT>:
  * @param  pData Pointer to data buffer (u8 or u16 data elements).
  * @param  Size  Amount of data elements (u8 or u16) to be received.
  * @retval HAL status
  */
HAL_StatusTypeDef UART_Start_Receive_IT(UART_HandleTypeDef *huart, uint8_t *pData, uint16_t Size)
{
 8002b0c:	b480      	push	{r7}
 8002b0e:	b0a3      	sub	sp, #140	@ 0x8c
 8002b10:	af00      	add	r7, sp, #0
 8002b12:	60f8      	str	r0, [r7, #12]
 8002b14:	60b9      	str	r1, [r7, #8]
 8002b16:	4613      	mov	r3, r2
 8002b18:	80fb      	strh	r3, [r7, #6]
  huart->pRxBuffPtr  = pData;
 8002b1a:	68fb      	ldr	r3, [r7, #12]
 8002b1c:	68ba      	ldr	r2, [r7, #8]
 8002b1e:	659a      	str	r2, [r3, #88]	@ 0x58
  huart->RxXferSize  = Size;
 8002b20:	68fb      	ldr	r3, [r7, #12]
 8002b22:	88fa      	ldrh	r2, [r7, #6]
 8002b24:	f8a3 205c 	strh.w	r2, [r3, #92]	@ 0x5c
  huart->RxXferCount = Size;
 8002b28:	68fb      	ldr	r3, [r7, #12]
 8002b2a:	88fa      	ldrh	r2, [r7, #6]
 8002b2c:	f8a3 205e 	strh.w	r2, [r3, #94]	@ 0x5e
  huart->RxISR       = NULL;
 8002b30:	68fb      	ldr	r3, [r7, #12]
 8002b32:	2200      	movs	r2, #0
 8002b34:	675a      	str	r2, [r3, #116]	@ 0x74

  /* Computation of UART mask to apply to RDR register */
  UART_MASK_COMPUTATION(huart);
 8002b36:	68fb      	ldr	r3, [r7, #12]
 8002b38:	689b      	ldr	r3, [r3, #8]
 8002b3a:	f5b3 5f80 	cmp.w	r3, #4096	@ 0x1000
 8002b3e:	d10e      	bne.n	8002b5e <UART_Start_Receive_IT+0x52>
 8002b40:	68fb      	ldr	r3, [r7, #12]
 8002b42:	691b      	ldr	r3, [r3, #16]
 8002b44:	2b00      	cmp	r3, #0
 8002b46:	d105      	bne.n	8002b54 <UART_Start_Receive_IT+0x48>
 8002b48:	68fb      	ldr	r3, [r7, #12]
 8002b4a:	f240 12ff 	movw	r2, #511	@ 0x1ff
 8002b4e:	f8a3 2060 	strh.w	r2, [r3, #96]	@ 0x60
 8002b52:	e02d      	b.n	8002bb0 <UART_Start_Receive_IT+0xa4>
 8002b54:	68fb      	ldr	r3, [r7, #12]
 8002b56:	22ff      	movs	r2, #255	@ 0xff
 8002b58:	f8a3 2060 	strh.w	r2, [r3, #96]	@ 0x60
 8002b5c:	e028      	b.n	8002bb0 <UART_Start_Receive_IT+0xa4>
 8002b5e:	68fb      	ldr	r3, [r7, #12]
 8002b60:	689b      	ldr	r3, [r3, #8]
 8002b62:	2b00      	cmp	r3, #0
 8002b64:	d10d      	bne.n	8002b82 <UART_Start_Receive_IT+0x76>
 8002b66:	68fb      	ldr	r3, [r7, #12]
 8002b68:	691b      	ldr	r3, [r3, #16]
 8002b6a:	2b00      	cmp	r3, #0
 8002b6c:	d104      	bne.n	8002b78 <UART_Start_Receive_IT+0x6c>
 8002b6e:	68fb      	ldr	r3, [r7, #12]
 8002b70:	22ff      	movs	r2, #255	@ 0xff
 8002b72:	f8a3 2060 	strh.w	r2, [r3, #96]	@ 0x60
 8002b76:	e01b      	b.n	8002bb0 <UART_Start_Receive_IT+0xa4>
 8002b78:	68fb      	ldr	r3, [r7, #12]
 8002b7a:	227f      	movs	r2, #127	@ 0x7f
 8002b7c:	f8a3 2060 	strh.w	r2, [r3, #96]	@ 0x60
 8002b80:	e016      	b.n	8002bb0 <UART_Start_Receive_IT+0xa4>
 8002b82:	68fb      	ldr	r3, [r7, #12]
 8002b84:	689b      	ldr	r3, [r3, #8]
 8002b86:	f1b3 5f80 	cmp.w	r3, #268435456	@ 0x10000000
 8002b8a:	d10d      	bne.n	8002ba8 <UART_Start_Receive_IT+0x9c>
 8002b8c:	68fb      	ldr	r3, [r7, #12]
 8002b8e:	691b      	ldr	r3, [r3, #16]
 8002b90:	2b00      	cmp	r3, #0
 8002b92:	d104      	bne.n	8002b9e <UART_Start_Receive_IT+0x92>
 8002b94:	68fb      	ldr	r3, [r7, #12]
 8002b96:	227f      	movs	r2, #127	@ 0x7f
 8002b98:	f8a3 2060 	strh.w	r2, [r3, #96]	@ 0x60
 8002b9c:	e008      	b.n	8002bb0 <UART_Start_Receive_IT+0xa4>
 8002b9e:	68fb      	ldr	r3, [r7, #12]
 8002ba0:	223f      	movs	r2, #63	@ 0x3f
 8002ba2:	f8a3 2060 	strh.w	r2, [r3, #96]	@ 0x60
 8002ba6:	e003      	b.n	8002bb0 <UART_Start_Receive_IT+0xa4>
 8002ba8:	68fb      	ldr	r3, [r7, #12]
 8002baa:	2200      	movs	r2, #0
 8002bac:	f8a3 2060 	strh.w	r2, [r3, #96]	@ 0x60

  huart->ErrorCode = HAL_UART_ERROR_NONE;
 8002bb0:	68fb      	ldr	r3, [r7, #12]
 8002bb2:	2200      	movs	r2, #0
 8002bb4:	f8c3 2090 	str.w	r2, [r3, #144]	@ 0x90
  huart->RxState = HAL_UART_STATE_BUSY_RX;
 8002bb8:	68fb      	ldr	r3, [r7, #12]
 8002bba:	2222      	movs	r2, #34	@ 0x22
 8002bbc:	f8c3 208c 	str.w	r2, [r3, #140]	@ 0x8c

  /* Enable the UART Error Interrupt: (Frame error, noise error, overrun error) */
  ATOMIC_SET_BIT(huart->Instance->CR3, USART_CR3_EIE);
 8002bc0:	68fb      	ldr	r3, [r7, #12]
 8002bc2:	681b      	ldr	r3, [r3, #0]
 8002bc4:	3308      	adds	r3, #8
 8002bc6:	667b      	str	r3, [r7, #100]	@ 0x64
   __ASM volatile ("ldrex %0, %1" : "=r" (result) : "Q" (*addr) );
 8002bc8:	6e7b      	ldr	r3, [r7, #100]	@ 0x64
 8002bca:	e853 3f00 	ldrex	r3, [r3]
 8002bce:	663b      	str	r3, [r7, #96]	@ 0x60
   return(result);
 8002bd0:	6e3b      	ldr	r3, [r7, #96]	@ 0x60
 8002bd2:	f043 0301 	orr.w	r3, r3, #1
 8002bd6:	f8c7 3084 	str.w	r3, [r7, #132]	@ 0x84
 8002bda:	68fb      	ldr	r3, [r7, #12]
 8002bdc:	681b      	ldr	r3, [r3, #0]
 8002bde:	3308      	adds	r3, #8
 8002be0:	f8d7 2084 	ldr.w	r2, [r7, #132]	@ 0x84
 8002be4:	673a      	str	r2, [r7, #112]	@ 0x70
 8002be6:	66fb      	str	r3, [r7, #108]	@ 0x6c
   __ASM volatile ("strex %0, %2, %1" : "=&r" (result), "=Q" (*addr) : "r" (value) );
 8002be8:	6ef9      	ldr	r1, [r7, #108]	@ 0x6c
 8002bea:	6f3a      	ldr	r2, [r7, #112]	@ 0x70
 8002bec:	e841 2300 	strex	r3, r2, [r1]
 8002bf0:	66bb      	str	r3, [r7, #104]	@ 0x68
   return(result);
 8002bf2:	6ebb      	ldr	r3, [r7, #104]	@ 0x68
 8002bf4:	2b00      	cmp	r3, #0
 8002bf6:	d1e3      	bne.n	8002bc0 <UART_Start_Receive_IT+0xb4>

  /* Configure Rx interrupt processing */
  if ((huart->FifoMode == UART_FIFOMODE_ENABLE) && (Size >= huart->NbRxDataToProcess))
 8002bf8:	68fb      	ldr	r3, [r7, #12]
 8002bfa:	6e5b      	ldr	r3, [r3, #100]	@ 0x64
 8002bfc:	f1b3 5f00 	cmp.w	r3, #536870912	@ 0x20000000
 8002c00:	d14f      	bne.n	8002ca2 <UART_Start_Receive_IT+0x196>
 8002c02:	68fb      	ldr	r3, [r7, #12]
 8002c04:	f8b3 3068 	ldrh.w	r3, [r3, #104]	@ 0x68
 8002c08:	88fa      	ldrh	r2, [r7, #6]
 8002c0a:	429a      	cmp	r2, r3
 8002c0c:	d349      	bcc.n	8002ca2 <UART_Start_Receive_IT+0x196>
  {
    /* Set the Rx ISR function pointer according to the data word length */
    if ((huart->Init.WordLength == UART_WORDLENGTH_9B) && (huart->Init.Parity == UART_PARITY_NONE))
 8002c0e:	68fb      	ldr	r3, [r7, #12]
 8002c10:	689b      	ldr	r3, [r3, #8]
 8002c12:	f5b3 5f80 	cmp.w	r3, #4096	@ 0x1000
 8002c16:	d107      	bne.n	8002c28 <UART_Start_Receive_IT+0x11c>
 8002c18:	68fb      	ldr	r3, [r7, #12]
 8002c1a:	691b      	ldr	r3, [r3, #16]
 8002c1c:	2b00      	cmp	r3, #0
 8002c1e:	d103      	bne.n	8002c28 <UART_Start_Receive_IT+0x11c>
    {
      huart->RxISR = UART_RxISR_16BIT_FIFOEN;
 8002c20:	68fb      	ldr	r3, [r7, #12]
 8002c22:	4a47      	ldr	r2, [pc, #284]	@ (8002d40 <UART_Start_Receive_IT+0x234>)
 8002c24:	675a      	str	r2, [r3, #116]	@ 0x74
 8002c26:	e002      	b.n	8002c2e <UART_Start_Receive_IT+0x122>
    }
    else
    {
      huart->RxISR = UART_RxISR_8BIT_FIFOEN;
 8002c28:	68fb      	ldr	r3, [r7, #12]
 8002c2a:	4a46      	ldr	r2, [pc, #280]	@ (8002d44 <UART_Start_Receive_IT+0x238>)
 8002c2c:	675a      	str	r2, [r3, #116]	@ 0x74
    }

    /* Enable the UART Parity Error interrupt and RX FIFO Threshold interrupt */
    if (huart->Init.Parity != UART_PARITY_NONE)
 8002c2e:	68fb      	ldr	r3, [r7, #12]
 8002c30:	691b      	ldr	r3, [r3, #16]
 8002c32:	2b00      	cmp	r3, #0
 8002c34:	d01a      	beq.n	8002c6c <UART_Start_Receive_IT+0x160>
    {
      ATOMIC_SET_BIT(huart->Instance->CR1, USART_CR1_PEIE);
 8002c36:	68fb      	ldr	r3, [r7, #12]
 8002c38:	681b      	ldr	r3, [r3, #0]
 8002c3a:	653b      	str	r3, [r7, #80]	@ 0x50
   __ASM volatile ("ldrex %0, %1" : "=r" (result) : "Q" (*addr) );
 8002c3c:	6d3b      	ldr	r3, [r7, #80]	@ 0x50
 8002c3e:	e853 3f00 	ldrex	r3, [r3]
 8002c42:	64fb      	str	r3, [r7, #76]	@ 0x4c
   return(result);
 8002c44:	6cfb      	ldr	r3, [r7, #76]	@ 0x4c
 8002c46:	f443 7380 	orr.w	r3, r3, #256	@ 0x100
 8002c4a:	f8c7 3080 	str.w	r3, [r7, #128]	@ 0x80
 8002c4e:	68fb      	ldr	r3, [r7, #12]
 8002c50:	681b      	ldr	r3, [r3, #0]
 8002c52:	461a      	mov	r2, r3
 8002c54:	f8d7 3080 	ldr.w	r3, [r7, #128]	@ 0x80
 8002c58:	65fb      	str	r3, [r7, #92]	@ 0x5c
 8002c5a:	65ba      	str	r2, [r7, #88]	@ 0x58
   __ASM volatile ("strex %0, %2, %1" : "=&r" (result), "=Q" (*addr) : "r" (value) );
 8002c5c:	6db9      	ldr	r1, [r7, #88]	@ 0x58
 8002c5e:	6dfa      	ldr	r2, [r7, #92]	@ 0x5c
 8002c60:	e841 2300 	strex	r3, r2, [r1]
 8002c64:	657b      	str	r3, [r7, #84]	@ 0x54
   return(result);
 8002c66:	6d7b      	ldr	r3, [r7, #84]	@ 0x54
 8002c68:	2b00      	cmp	r3, #0
 8002c6a:	d1e4      	bne.n	8002c36 <UART_Start_Receive_IT+0x12a>
    }
    ATOMIC_SET_BIT(huart->Instance->CR3, USART_CR3_RXFTIE);
 8002c6c:	68fb      	ldr	r3, [r7, #12]
 8002c6e:	681b      	ldr	r3, [r3, #0]
 8002c70:	3308      	adds	r3, #8
 8002c72:	63fb      	str	r3, [r7, #60]	@ 0x3c
   __ASM volatile ("ldrex %0, %1" : "=r" (result) : "Q" (*addr) );
 8002c74:	6bfb      	ldr	r3, [r7, #60]	@ 0x3c
 8002c76:	e853 3f00 	ldrex	r3, [r3]
 8002c7a:	63bb      	str	r3, [r7, #56]	@ 0x38
   return(result);
 8002c7c:	6bbb      	ldr	r3, [r7, #56]	@ 0x38
 8002c7e:	f043 5380 	orr.w	r3, r3, #268435456	@ 0x10000000
 8002c82:	67fb      	str	r3, [r7, #124]	@ 0x7c
 8002c84:	68fb      	ldr	r3, [r7, #12]
 8002c86:	681b      	ldr	r3, [r3, #0]
 8002c88:	3308      	adds	r3, #8
 8002c8a:	6ffa      	ldr	r2, [r7, #124]	@ 0x7c
 8002c8c:	64ba      	str	r2, [r7, #72]	@ 0x48
 8002c8e:	647b      	str	r3, [r7, #68]	@ 0x44
   __ASM volatile ("strex %0, %2, %1" : "=&r" (result), "=Q" (*addr) : "r" (value) );
 8002c90:	6c79      	ldr	r1, [r7, #68]	@ 0x44
 8002c92:	6cba      	ldr	r2, [r7, #72]	@ 0x48
 8002c94:	e841 2300 	strex	r3, r2, [r1]
 8002c98:	643b      	str	r3, [r7, #64]	@ 0x40
   return(result);
 8002c9a:	6c3b      	ldr	r3, [r7, #64]	@ 0x40
 8002c9c:	2b00      	cmp	r3, #0
 8002c9e:	d1e5      	bne.n	8002c6c <UART_Start_Receive_IT+0x160>
 8002ca0:	e046      	b.n	8002d30 <UART_Start_Receive_IT+0x224>
  }
  else
  {
    /* Set the Rx ISR function pointer according to the data word length */
    if ((huart->Init.WordLength == UART_WORDLENGTH_9B) && (huart->Init.Parity == UART_PARITY_NONE))
 8002ca2:	68fb      	ldr	r3, [r7, #12]
 8002ca4:	689b      	ldr	r3, [r3, #8]
 8002ca6:	f5b3 5f80 	cmp.w	r3, #4096	@ 0x1000
 8002caa:	d107      	bne.n	8002cbc <UART_Start_Receive_IT+0x1b0>
 8002cac:	68fb      	ldr	r3, [r7, #12]
 8002cae:	691b      	ldr	r3, [r3, #16]
 8002cb0:	2b00      	cmp	r3, #0
 8002cb2:	d103      	bne.n	8002cbc <UART_Start_Receive_IT+0x1b0>
    {
      huart->RxISR = UART_RxISR_16BIT;
 8002cb4:	68fb      	ldr	r3, [r7, #12]
 8002cb6:	4a24      	ldr	r2, [pc, #144]	@ (8002d48 <UART_Start_Receive_IT+0x23c>)
 8002cb8:	675a      	str	r2, [r3, #116]	@ 0x74
 8002cba:	e002      	b.n	8002cc2 <UART_Start_Receive_IT+0x1b6>
    }
    else
    {
      huart->RxISR = UART_RxISR_8BIT;
 8002cbc:	68fb      	ldr	r3, [r7, #12]
 8002cbe:	4a23      	ldr	r2, [pc, #140]	@ (8002d4c <UART_Start_Receive_IT+0x240>)
 8002cc0:	675a      	str	r2, [r3, #116]	@ 0x74
    }

    /* Enable the UART Parity Error interrupt and Data Register Not Empty interrupt */
    if (huart->Init.Parity != UART_PARITY_NONE)
 8002cc2:	68fb      	ldr	r3, [r7, #12]
 8002cc4:	691b      	ldr	r3, [r3, #16]
 8002cc6:	2b00      	cmp	r3, #0
 8002cc8:	d019      	beq.n	8002cfe <UART_Start_Receive_IT+0x1f2>
    {
      ATOMIC_SET_BIT(huart->Instance->CR1, USART_CR1_PEIE | USART_CR1_RXNEIE_RXFNEIE);
 8002cca:	68fb      	ldr	r3, [r7, #12]
 8002ccc:	681b      	ldr	r3, [r3, #0]
 8002cce:	62bb      	str	r3, [r7, #40]	@ 0x28
   __ASM volatile ("ldrex %0, %1" : "=r" (result) : "Q" (*addr) );
 8002cd0:	6abb      	ldr	r3, [r7, #40]	@ 0x28
 8002cd2:	e853 3f00 	ldrex	r3, [r3]
 8002cd6:	627b      	str	r3, [r7, #36]	@ 0x24
   return(result);
 8002cd8:	6a7b      	ldr	r3, [r7, #36]	@ 0x24
 8002cda:	f443 7390 	orr.w	r3, r3, #288	@ 0x120
 8002cde:	677b      	str	r3, [r7, #116]	@ 0x74
 8002ce0:	68fb      	ldr	r3, [r7, #12]
 8002ce2:	681b      	ldr	r3, [r3, #0]
 8002ce4:	461a      	mov	r2, r3
 8002ce6:	6f7b      	ldr	r3, [r7, #116]	@ 0x74
 8002ce8:	637b      	str	r3, [r7, #52]	@ 0x34
 8002cea:	633a      	str	r2, [r7, #48]	@ 0x30
   __ASM volatile ("strex %0, %2, %1" : "=&r" (result), "=Q" (*addr) : "r" (value) );
 8002cec:	6b39      	ldr	r1, [r7, #48]	@ 0x30
 8002cee:	6b7a      	ldr	r2, [r7, #52]	@ 0x34
 8002cf0:	e841 2300 	strex	r3, r2, [r1]
 8002cf4:	62fb      	str	r3, [r7, #44]	@ 0x2c
   return(result);
 8002cf6:	6afb      	ldr	r3, [r7, #44]	@ 0x2c
 8002cf8:	2b00      	cmp	r3, #0
 8002cfa:	d1e6      	bne.n	8002cca <UART_Start_Receive_IT+0x1be>
 8002cfc:	e018      	b.n	8002d30 <UART_Start_Receive_IT+0x224>
    }
    else
    {
      ATOMIC_SET_BIT(huart->Instance->CR1, USART_CR1_RXNEIE_RXFNEIE);
 8002cfe:	68fb      	ldr	r3, [r7, #12]
 8002d00:	681b      	ldr	r3, [r3, #0]
 8002d02:	617b      	str	r3, [r7, #20]
   __ASM volatile ("ldrex %0, %1" : "=r" (result) : "Q" (*addr) );
 8002d04:	697b      	ldr	r3, [r7, #20]
 8002d06:	e853 3f00 	ldrex	r3, [r3]
 8002d0a:	613b      	str	r3, [r7, #16]
   return(result);
 8002d0c:	693b      	ldr	r3, [r7, #16]
 8002d0e:	f043 0320 	orr.w	r3, r3, #32
 8002d12:	67bb      	str	r3, [r7, #120]	@ 0x78
 8002d14:	68fb      	ldr	r3, [r7, #12]
 8002d16:	681b      	ldr	r3, [r3, #0]
 8002d18:	461a      	mov	r2, r3
 8002d1a:	6fbb      	ldr	r3, [r7, #120]	@ 0x78
 8002d1c:	623b      	str	r3, [r7, #32]
 8002d1e:	61fa      	str	r2, [r7, #28]
   __ASM volatile ("strex %0, %2, %1" : "=&r" (result), "=Q" (*addr) : "r" (value) );
 8002d20:	69f9      	ldr	r1, [r7, #28]
 8002d22:	6a3a      	ldr	r2, [r7, #32]
 8002d24:	e841 2300 	strex	r3, r2, [r1]
 8002d28:	61bb      	str	r3, [r7, #24]
   return(result);
 8002d2a:	69bb      	ldr	r3, [r7, #24]
 8002d2c:	2b00      	cmp	r3, #0
 8002d2e:	d1e6      	bne.n	8002cfe <UART_Start_Receive_IT+0x1f2>
    }
  }
  return HAL_OK;
 8002d30:	2300      	movs	r3, #0
}
 8002d32:	4618      	mov	r0, r3
 8002d34:	378c      	adds	r7, #140	@ 0x8c
 8002d36:	46bd      	mov	sp, r7
 8002d38:	f85d 7b04 	ldr.w	r7, [sp], #4
 8002d3c:	4770      	bx	lr
 8002d3e:	bf00      	nop
 8002d40:	08003565 	.word	0x08003565
 8002d44:	08003201 	.word	0x08003201
 8002d48:	08003049 	.word	0x08003049
 8002d4c:	08002e91 	.word	0x08002e91

08002d50 <UART_EndRxTransfer>:
  * @brief  End ongoing Rx transfer on UART peripheral (following error detection or Reception completion).
  * @param  huart UART handle.
  * @retval None
  */
static void UART_EndRxTransfer(UART_HandleTypeDef *huart)
{
 8002d50:	b480      	push	{r7}
 8002d52:	b095      	sub	sp, #84	@ 0x54
 8002d54:	af00      	add	r7, sp, #0
 8002d56:	6078      	str	r0, [r7, #4]
  /* Disable RXNE, PE and ERR (Frame error, noise error, overrun error) interrupts */
  ATOMIC_CLEAR_BIT(huart->Instance->CR1, (USART_CR1_RXNEIE_RXFNEIE | USART_CR1_PEIE));
 8002d58:	687b      	ldr	r3, [r7, #4]
 8002d5a:	681b      	ldr	r3, [r3, #0]
 8002d5c:	637b      	str	r3, [r7, #52]	@ 0x34
   __ASM volatile ("ldrex %0, %1" : "=r" (result) : "Q" (*addr) );
 8002d5e:	6b7b      	ldr	r3, [r7, #52]	@ 0x34
 8002d60:	e853 3f00 	ldrex	r3, [r3]
 8002d64:	633b      	str	r3, [r7, #48]	@ 0x30
   return(result);
 8002d66:	6b3b      	ldr	r3, [r7, #48]	@ 0x30
 8002d68:	f423 7390 	bic.w	r3, r3, #288	@ 0x120
 8002d6c:	64fb      	str	r3, [r7, #76]	@ 0x4c
 8002d6e:	687b      	ldr	r3, [r7, #4]
 8002d70:	681b      	ldr	r3, [r3, #0]
 8002d72:	461a      	mov	r2, r3
 8002d74:	6cfb      	ldr	r3, [r7, #76]	@ 0x4c
 8002d76:	643b      	str	r3, [r7, #64]	@ 0x40
 8002d78:	63fa      	str	r2, [r7, #60]	@ 0x3c
   __ASM volatile ("strex %0, %2, %1" : "=&r" (result), "=Q" (*addr) : "r" (value) );
 8002d7a:	6bf9      	ldr	r1, [r7, #60]	@ 0x3c
 8002d7c:	6c3a      	ldr	r2, [r7, #64]	@ 0x40
 8002d7e:	e841 2300 	strex	r3, r2, [r1]
 8002d82:	63bb      	str	r3, [r7, #56]	@ 0x38
   return(result);
 8002d84:	6bbb      	ldr	r3, [r7, #56]	@ 0x38
 8002d86:	2b00      	cmp	r3, #0
 8002d88:	d1e6      	bne.n	8002d58 <UART_EndRxTransfer+0x8>
  ATOMIC_CLEAR_BIT(huart->Instance->CR3, (USART_CR3_EIE | USART_CR3_RXFTIE));
 8002d8a:	687b      	ldr	r3, [r7, #4]
 8002d8c:	681b      	ldr	r3, [r3, #0]
 8002d8e:	3308      	adds	r3, #8
 8002d90:	623b      	str	r3, [r7, #32]
   __ASM volatile ("ldrex %0, %1" : "=r" (result) : "Q" (*addr) );
 8002d92:	6a3b      	ldr	r3, [r7, #32]
 8002d94:	e853 3f00 	ldrex	r3, [r3]
 8002d98:	61fb      	str	r3, [r7, #28]
   return(result);
 8002d9a:	69fb      	ldr	r3, [r7, #28]
 8002d9c:	f023 5380 	bic.w	r3, r3, #268435456	@ 0x10000000
 8002da0:	f023 0301 	bic.w	r3, r3, #1
 8002da4:	64bb      	str	r3, [r7, #72]	@ 0x48
 8002da6:	687b      	ldr	r3, [r7, #4]
 8002da8:	681b      	ldr	r3, [r3, #0]
 8002daa:	3308      	adds	r3, #8
 8002dac:	6cba      	ldr	r2, [r7, #72]	@ 0x48
 8002dae:	62fa      	str	r2, [r7, #44]	@ 0x2c
 8002db0:	62bb      	str	r3, [r7, #40]	@ 0x28
   __ASM volatile ("strex %0, %2, %1" : "=&r" (result), "=Q" (*addr) : "r" (value) );
 8002db2:	6ab9      	ldr	r1, [r7, #40]	@ 0x28
 8002db4:	6afa      	ldr	r2, [r7, #44]	@ 0x2c
 8002db6:	e841 2300 	strex	r3, r2, [r1]
 8002dba:	627b      	str	r3, [r7, #36]	@ 0x24
   return(result);
 8002dbc:	6a7b      	ldr	r3, [r7, #36]	@ 0x24
 8002dbe:	2b00      	cmp	r3, #0
 8002dc0:	d1e3      	bne.n	8002d8a <UART_EndRxTransfer+0x3a>

  /* In case of reception waiting for IDLE event, disable also the IDLE IE interrupt source */
  if (huart->ReceptionType == HAL_UART_RECEPTION_TOIDLE)
 8002dc2:	687b      	ldr	r3, [r7, #4]
 8002dc4:	6edb      	ldr	r3, [r3, #108]	@ 0x6c
 8002dc6:	2b01      	cmp	r3, #1
 8002dc8:	d118      	bne.n	8002dfc <UART_EndRxTransfer+0xac>
  {
    ATOMIC_CLEAR_BIT(huart->Instance->CR1, USART_CR1_IDLEIE);
 8002dca:	687b      	ldr	r3, [r7, #4]
 8002dcc:	681b      	ldr	r3, [r3, #0]
 8002dce:	60fb      	str	r3, [r7, #12]
   __ASM volatile ("ldrex %0, %1" : "=r" (result) : "Q" (*addr) );
 8002dd0:	68fb      	ldr	r3, [r7, #12]
 8002dd2:	e853 3f00 	ldrex	r3, [r3]
 8002dd6:	60bb      	str	r3, [r7, #8]
   return(result);
 8002dd8:	68bb      	ldr	r3, [r7, #8]
 8002dda:	f023 0310 	bic.w	r3, r3, #16
 8002dde:	647b      	str	r3, [r7, #68]	@ 0x44
 8002de0:	687b      	ldr	r3, [r7, #4]
 8002de2:	681b      	ldr	r3, [r3, #0]
 8002de4:	461a      	mov	r2, r3
 8002de6:	6c7b      	ldr	r3, [r7, #68]	@ 0x44
 8002de8:	61bb      	str	r3, [r7, #24]
 8002dea:	617a      	str	r2, [r7, #20]
   __ASM volatile ("strex %0, %2, %1" : "=&r" (result), "=Q" (*addr) : "r" (value) );
 8002dec:	6979      	ldr	r1, [r7, #20]
 8002dee:	69ba      	ldr	r2, [r7, #24]
 8002df0:	e841 2300 	strex	r3, r2, [r1]
 8002df4:	613b      	str	r3, [r7, #16]
   return(result);
 8002df6:	693b      	ldr	r3, [r7, #16]
 8002df8:	2b00      	cmp	r3, #0
 8002dfa:	d1e6      	bne.n	8002dca <UART_EndRxTransfer+0x7a>
  }

  /* At end of Rx process, restore huart->RxState to Ready */
  huart->RxState = HAL_UART_STATE_READY;
 8002dfc:	687b      	ldr	r3, [r7, #4]
 8002dfe:	2220      	movs	r2, #32
 8002e00:	f8c3 208c 	str.w	r2, [r3, #140]	@ 0x8c
  huart->ReceptionType = HAL_UART_RECEPTION_STANDARD;
 8002e04:	687b      	ldr	r3, [r7, #4]
 8002e06:	2200      	movs	r2, #0
 8002e08:	66da      	str	r2, [r3, #108]	@ 0x6c

  /* Reset RxIsr function pointer */
  huart->RxISR = NULL;
 8002e0a:	687b      	ldr	r3, [r7, #4]
 8002e0c:	2200      	movs	r2, #0
 8002e0e:	675a      	str	r2, [r3, #116]	@ 0x74
}
 8002e10:	bf00      	nop
 8002e12:	3754      	adds	r7, #84	@ 0x54
 8002e14:	46bd      	mov	sp, r7
 8002e16:	f85d 7b04 	ldr.w	r7, [sp], #4
 8002e1a:	4770      	bx	lr

08002e1c <UART_DMAAbortOnError>:
  *         (To be called at end of DMA Abort procedure following error occurrence).
  * @param  hdma DMA handle.
  * @retval None
  */
static void UART_DMAAbortOnError(DMA_HandleTypeDef *hdma)
{
 8002e1c:	b580      	push	{r7, lr}
 8002e1e:	b084      	sub	sp, #16
 8002e20:	af00      	add	r7, sp, #0
 8002e22:	6078      	str	r0, [r7, #4]
  UART_HandleTypeDef *huart = (UART_HandleTypeDef *)(hdma->Parent);
 8002e24:	687b      	ldr	r3, [r7, #4]
 8002e26:	6a9b      	ldr	r3, [r3, #40]	@ 0x28
 8002e28:	60fb      	str	r3, [r7, #12]
#if (USE_HAL_UART_REGISTER_CALLBACKS == 1)
  /*Call registered error callback*/
  huart->ErrorCallback(huart);
#else
  /*Call legacy weak error callback*/
  HAL_UART_ErrorCallback(huart);
 8002e2a:	68f8      	ldr	r0, [r7, #12]
 8002e2c:	f7ff fe58 	bl	8002ae0 <HAL_UART_ErrorCallback>
#endif /* USE_HAL_UART_REGISTER_CALLBACKS */
}
 8002e30:	bf00      	nop
 8002e32:	3710      	adds	r7, #16
 8002e34:	46bd      	mov	sp, r7
 8002e36:	bd80      	pop	{r7, pc}

08002e38 <UART_EndTransmit_IT>:
  * @param  huart pointer to a UART_HandleTypeDef structure that contains
  *                the configuration information for the specified UART module.
  * @retval None
  */
static void UART_EndTransmit_IT(UART_HandleTypeDef *huart)
{
 8002e38:	b580      	push	{r7, lr}
 8002e3a:	b088      	sub	sp, #32
 8002e3c:	af00      	add	r7, sp, #0
 8002e3e:	6078      	str	r0, [r7, #4]
  /* Disable the UART Transmit Complete Interrupt */
  ATOMIC_CLEAR_BIT(huart->Instance->CR1, USART_CR1_TCIE);
 8002e40:	687b      	ldr	r3, [r7, #4]
 8002e42:	681b      	ldr	r3, [r3, #0]
 8002e44:	60fb      	str	r3, [r7, #12]
   __ASM volatile ("ldrex %0, %1" : "=r" (result) : "Q" (*addr) );
 8002e46:	68fb      	ldr	r3, [r7, #12]
 8002e48:	e853 3f00 	ldrex	r3, [r3]
 8002e4c:	60bb      	str	r3, [r7, #8]
   return(result);
 8002e4e:	68bb      	ldr	r3, [r7, #8]
 8002e50:	f023 0340 	bic.w	r3, r3, #64	@ 0x40
 8002e54:	61fb      	str	r3, [r7, #28]
 8002e56:	687b      	ldr	r3, [r7, #4]
 8002e58:	681b      	ldr	r3, [r3, #0]
 8002e5a:	461a      	mov	r2, r3
 8002e5c:	69fb      	ldr	r3, [r7, #28]
 8002e5e:	61bb      	str	r3, [r7, #24]
 8002e60:	617a      	str	r2, [r7, #20]
   __ASM volatile ("strex %0, %2, %1" : "=&r" (result), "=Q" (*addr) : "r" (value) );
 8002e62:	6979      	ldr	r1, [r7, #20]
 8002e64:	69ba      	ldr	r2, [r7, #24]
 8002e66:	e841 2300 	strex	r3, r2, [r1]
 8002e6a:	613b      	str	r3, [r7, #16]
   return(result);
 8002e6c:	693b      	ldr	r3, [r7, #16]
 8002e6e:	2b00      	cmp	r3, #0
 8002e70:	d1e6      	bne.n	8002e40 <UART_EndTransmit_IT+0x8>

  /* Tx process is ended, restore huart->gState to Ready */
  huart->gState = HAL_UART_STATE_READY;
 8002e72:	687b      	ldr	r3, [r7, #4]
 8002e74:	2220      	movs	r2, #32
 8002e76:	f8c3 2088 	str.w	r2, [r3, #136]	@ 0x88

  /* Cleat TxISR function pointer */
  huart->TxISR = NULL;
 8002e7a:	687b      	ldr	r3, [r7, #4]
 8002e7c:	2200      	movs	r2, #0
 8002e7e:	679a      	str	r2, [r3, #120]	@ 0x78
#if (USE_HAL_UART_REGISTER_CALLBACKS == 1)
  /*Call registered Tx complete callback*/
  huart->TxCpltCallback(huart);
#else
  /*Call legacy weak Tx complete callback*/
  HAL_UART_TxCpltCallback(huart);
 8002e80:	6878      	ldr	r0, [r7, #4]
 8002e82:	f7ff fe19 	bl	8002ab8 <HAL_UART_TxCpltCallback>
#endif /* USE_HAL_UART_REGISTER_CALLBACKS */
}
 8002e86:	bf00      	nop
 8002e88:	3720      	adds	r7, #32
 8002e8a:	46bd      	mov	sp, r7
 8002e8c:	bd80      	pop	{r7, pc}
	...

08002e90 <UART_RxISR_8BIT>:
  * @brief RX interrupt handler for 7 or 8 bits data word length .
  * @param huart UART handle.
  * @retval None
  */
static void UART_RxISR_8BIT(UART_HandleTypeDef *huart)
{
 8002e90:	b580      	push	{r7, lr}
 8002e92:	b09c      	sub	sp, #112	@ 0x70
 8002e94:	af00      	add	r7, sp, #0
 8002e96:	6078      	str	r0, [r7, #4]
  uint16_t uhMask = huart->Mask;
 8002e98:	687b      	ldr	r3, [r7, #4]
 8002e9a:	f8b3 3060 	ldrh.w	r3, [r3, #96]	@ 0x60
 8002e9e:	f8a7 306e 	strh.w	r3, [r7, #110]	@ 0x6e
  uint16_t  uhdata;

  /* Check that a Rx process is ongoing */
  if (huart->RxState == HAL_UART_STATE_BUSY_RX)
 8002ea2:	687b      	ldr	r3, [r7, #4]
 8002ea4:	f8d3 308c 	ldr.w	r3, [r3, #140]	@ 0x8c
 8002ea8:	2b22      	cmp	r3, #34	@ 0x22
 8002eaa:	f040 80be 	bne.w	800302a <UART_RxISR_8BIT+0x19a>
  {
    uhdata = (uint16_t) READ_REG(huart->Instance->RDR);
 8002eae:	687b      	ldr	r3, [r7, #4]
 8002eb0:	681b      	ldr	r3, [r3, #0]
 8002eb2:	6a5b      	ldr	r3, [r3, #36]	@ 0x24
 8002eb4:	f8a7 306c 	strh.w	r3, [r7, #108]	@ 0x6c
    *huart->pRxBuffPtr = (uint8_t)(uhdata & (uint8_t)uhMask);
 8002eb8:	f8b7 306c 	ldrh.w	r3, [r7, #108]	@ 0x6c
 8002ebc:	b2d9      	uxtb	r1, r3
 8002ebe:	f8b7 306e 	ldrh.w	r3, [r7, #110]	@ 0x6e
 8002ec2:	b2da      	uxtb	r2, r3
 8002ec4:	687b      	ldr	r3, [r7, #4]
 8002ec6:	6d9b      	ldr	r3, [r3, #88]	@ 0x58
 8002ec8:	400a      	ands	r2, r1
 8002eca:	b2d2      	uxtb	r2, r2
 8002ecc:	701a      	strb	r2, [r3, #0]
    huart->pRxBuffPtr++;
 8002ece:	687b      	ldr	r3, [r7, #4]
 8002ed0:	6d9b      	ldr	r3, [r3, #88]	@ 0x58
 8002ed2:	1c5a      	adds	r2, r3, #1
 8002ed4:	687b      	ldr	r3, [r7, #4]
 8002ed6:	659a      	str	r2, [r3, #88]	@ 0x58
    huart->RxXferCount--;
 8002ed8:	687b      	ldr	r3, [r7, #4]
 8002eda:	f8b3 305e 	ldrh.w	r3, [r3, #94]	@ 0x5e
 8002ede:	b29b      	uxth	r3, r3
 8002ee0:	3b01      	subs	r3, #1
 8002ee2:	b29a      	uxth	r2, r3
 8002ee4:	687b      	ldr	r3, [r7, #4]
 8002ee6:	f8a3 205e 	strh.w	r2, [r3, #94]	@ 0x5e

    if (huart->RxXferCount == 0U)
 8002eea:	687b      	ldr	r3, [r7, #4]
 8002eec:	f8b3 305e 	ldrh.w	r3, [r3, #94]	@ 0x5e
 8002ef0:	b29b      	uxth	r3, r3
 8002ef2:	2b00      	cmp	r3, #0
 8002ef4:	f040 80a1 	bne.w	800303a <UART_RxISR_8BIT+0x1aa>
    {
      /* Disable the UART Parity Error Interrupt and RXNE interrupts */
      ATOMIC_CLEAR_BIT(huart->Instance->CR1, (USART_CR1_RXNEIE_RXFNEIE | USART_CR1_PEIE));
 8002ef8:	687b      	ldr	r3, [r7, #4]
 8002efa:	681b      	ldr	r3, [r3, #0]
 8002efc:	64fb      	str	r3, [r7, #76]	@ 0x4c
   __ASM volatile ("ldrex %0, %1" : "=r" (result) : "Q" (*addr) );
 8002efe:	6cfb      	ldr	r3, [r7, #76]	@ 0x4c
 8002f00:	e853 3f00 	ldrex	r3, [r3]
 8002f04:	64bb      	str	r3, [r7, #72]	@ 0x48
   return(result);
 8002f06:	6cbb      	ldr	r3, [r7, #72]	@ 0x48
 8002f08:	f423 7390 	bic.w	r3, r3, #288	@ 0x120
 8002f0c:	66bb      	str	r3, [r7, #104]	@ 0x68
 8002f0e:	687b      	ldr	r3, [r7, #4]
 8002f10:	681b      	ldr	r3, [r3, #0]
 8002f12:	461a      	mov	r2, r3
 8002f14:	6ebb      	ldr	r3, [r7, #104]	@ 0x68
 8002f16:	65bb      	str	r3, [r7, #88]	@ 0x58
 8002f18:	657a      	str	r2, [r7, #84]	@ 0x54
   __ASM volatile ("strex %0, %2, %1" : "=&r" (result), "=Q" (*addr) : "r" (value) );
 8002f1a:	6d79      	ldr	r1, [r7, #84]	@ 0x54
 8002f1c:	6dba      	ldr	r2, [r7, #88]	@ 0x58
 8002f1e:	e841 2300 	strex	r3, r2, [r1]
 8002f22:	653b      	str	r3, [r7, #80]	@ 0x50
   return(result);
 8002f24:	6d3b      	ldr	r3, [r7, #80]	@ 0x50
 8002f26:	2b00      	cmp	r3, #0
 8002f28:	d1e6      	bne.n	8002ef8 <UART_RxISR_8BIT+0x68>

      /* Disable the UART Error Interrupt: (Frame error, noise error, overrun error) */
      ATOMIC_CLEAR_BIT(huart->Instance->CR3, USART_CR3_EIE);
 8002f2a:	687b      	ldr	r3, [r7, #4]
 8002f2c:	681b      	ldr	r3, [r3, #0]
 8002f2e:	3308      	adds	r3, #8
 8002f30:	63bb      	str	r3, [r7, #56]	@ 0x38
   __ASM volatile ("ldrex %0, %1" : "=r" (result) : "Q" (*addr) );
 8002f32:	6bbb      	ldr	r3, [r7, #56]	@ 0x38
 8002f34:	e853 3f00 	ldrex	r3, [r3]
 8002f38:	637b      	str	r3, [r7, #52]	@ 0x34
   return(result);
 8002f3a:	6b7b      	ldr	r3, [r7, #52]	@ 0x34
 8002f3c:	f023 0301 	bic.w	r3, r3, #1
 8002f40:	667b      	str	r3, [r7, #100]	@ 0x64
 8002f42:	687b      	ldr	r3, [r7, #4]
 8002f44:	681b      	ldr	r3, [r3, #0]
 8002f46:	3308      	adds	r3, #8
 8002f48:	6e7a      	ldr	r2, [r7, #100]	@ 0x64
 8002f4a:	647a      	str	r2, [r7, #68]	@ 0x44
 8002f4c:	643b      	str	r3, [r7, #64]	@ 0x40
   __ASM volatile ("strex %0, %2, %1" : "=&r" (result), "=Q" (*addr) : "r" (value) );
 8002f4e:	6c39      	ldr	r1, [r7, #64]	@ 0x40
 8002f50:	6c7a      	ldr	r2, [r7, #68]	@ 0x44
 8002f52:	e841 2300 	strex	r3, r2, [r1]
 8002f56:	63fb      	str	r3, [r7, #60]	@ 0x3c
   return(result);
 8002f58:	6bfb      	ldr	r3, [r7, #60]	@ 0x3c
 8002f5a:	2b00      	cmp	r3, #0
 8002f5c:	d1e5      	bne.n	8002f2a <UART_RxISR_8BIT+0x9a>

      /* Rx process is completed, restore huart->RxState to Ready */
      huart->RxState = HAL_UART_STATE_READY;
 8002f5e:	687b      	ldr	r3, [r7, #4]
 8002f60:	2220      	movs	r2, #32
 8002f62:	f8c3 208c 	str.w	r2, [r3, #140]	@ 0x8c

      /* Clear RxISR function pointer */
      huart->RxISR = NULL;
 8002f66:	687b      	ldr	r3, [r7, #4]
 8002f68:	2200      	movs	r2, #0
 8002f6a:	675a      	str	r2, [r3, #116]	@ 0x74

      /* Initialize type of RxEvent to Transfer Complete */
      huart->RxEventType = HAL_UART_RXEVENT_TC;
 8002f6c:	687b      	ldr	r3, [r7, #4]
 8002f6e:	2200      	movs	r2, #0
 8002f70:	671a      	str	r2, [r3, #112]	@ 0x70

      if (!(IS_LPUART_INSTANCE(huart->Instance)))
 8002f72:	687b      	ldr	r3, [r7, #4]
 8002f74:	681b      	ldr	r3, [r3, #0]
 8002f76:	4a33      	ldr	r2, [pc, #204]	@ (8003044 <UART_RxISR_8BIT+0x1b4>)
 8002f78:	4293      	cmp	r3, r2
 8002f7a:	d01f      	beq.n	8002fbc <UART_RxISR_8BIT+0x12c>
      {
        /* Check that USART RTOEN bit is set */
        if (READ_BIT(huart->Instance->CR2, USART_CR2_RTOEN) != 0U)
 8002f7c:	687b      	ldr	r3, [r7, #4]
 8002f7e:	681b      	ldr	r3, [r3, #0]
 8002f80:	685b      	ldr	r3, [r3, #4]
 8002f82:	f403 0300 	and.w	r3, r3, #8388608	@ 0x800000
 8002f86:	2b00      	cmp	r3, #0
 8002f88:	d018      	beq.n	8002fbc <UART_RxISR_8BIT+0x12c>
        {
          /* Enable the UART Receiver Timeout Interrupt */
          ATOMIC_CLEAR_BIT(huart->Instance->CR1, USART_CR1_RTOIE);
 8002f8a:	687b      	ldr	r3, [r7, #4]
 8002f8c:	681b      	ldr	r3, [r3, #0]
 8002f8e:	627b      	str	r3, [r7, #36]	@ 0x24
   __ASM volatile ("ldrex %0, %1" : "=r" (result) : "Q" (*addr) );
 8002f90:	6a7b      	ldr	r3, [r7, #36]	@ 0x24
 8002f92:	e853 3f00 	ldrex	r3, [r3]
 8002f96:	623b      	str	r3, [r7, #32]
   return(result);
 8002f98:	6a3b      	ldr	r3, [r7, #32]
 8002f9a:	f023 6380 	bic.w	r3, r3, #67108864	@ 0x4000000
 8002f9e:	663b      	str	r3, [r7, #96]	@ 0x60
 8002fa0:	687b      	ldr	r3, [r7, #4]
 8002fa2:	681b      	ldr	r3, [r3, #0]
 8002fa4:	461a      	mov	r2, r3
 8002fa6:	6e3b      	ldr	r3, [r7, #96]	@ 0x60
 8002fa8:	633b      	str	r3, [r7, #48]	@ 0x30
 8002faa:	62fa      	str	r2, [r7, #44]	@ 0x2c
   __ASM volatile ("strex %0, %2, %1" : "=&r" (result), "=Q" (*addr) : "r" (value) );
 8002fac:	6af9      	ldr	r1, [r7, #44]	@ 0x2c
 8002fae:	6b3a      	ldr	r2, [r7, #48]	@ 0x30
 8002fb0:	e841 2300 	strex	r3, r2, [r1]
 8002fb4:	62bb      	str	r3, [r7, #40]	@ 0x28
   return(result);
 8002fb6:	6abb      	ldr	r3, [r7, #40]	@ 0x28
 8002fb8:	2b00      	cmp	r3, #0
 8002fba:	d1e6      	bne.n	8002f8a <UART_RxISR_8BIT+0xfa>
        }
      }

      /* Check current reception Mode :
         If Reception till IDLE event has been selected : */
      if (huart->ReceptionType == HAL_UART_RECEPTION_TOIDLE)
 8002fbc:	687b      	ldr	r3, [r7, #4]
 8002fbe:	6edb      	ldr	r3, [r3, #108]	@ 0x6c
 8002fc0:	2b01      	cmp	r3, #1
 8002fc2:	d12e      	bne.n	8003022 <UART_RxISR_8BIT+0x192>
      {
        /* Set reception type to Standard */
        huart->ReceptionType = HAL_UART_RECEPTION_STANDARD;
 8002fc4:	687b      	ldr	r3, [r7, #4]
 8002fc6:	2200      	movs	r2, #0
 8002fc8:	66da      	str	r2, [r3, #108]	@ 0x6c

        /* Disable IDLE interrupt */
        ATOMIC_CLEAR_BIT(huart->Instance->CR1, USART_CR1_IDLEIE);
 8002fca:	687b      	ldr	r3, [r7, #4]
 8002fcc:	681b      	ldr	r3, [r3, #0]
 8002fce:	613b      	str	r3, [r7, #16]
   __ASM volatile ("ldrex %0, %1" : "=r" (result) : "Q" (*addr) );
 8002fd0:	693b      	ldr	r3, [r7, #16]
 8002fd2:	e853 3f00 	ldrex	r3, [r3]
 8002fd6:	60fb      	str	r3, [r7, #12]
   return(result);
 8002fd8:	68fb      	ldr	r3, [r7, #12]
 8002fda:	f023 0310 	bic.w	r3, r3, #16
 8002fde:	65fb      	str	r3, [r7, #92]	@ 0x5c
 8002fe0:	687b      	ldr	r3, [r7, #4]
 8002fe2:	681b      	ldr	r3, [r3, #0]
 8002fe4:	461a      	mov	r2, r3
 8002fe6:	6dfb      	ldr	r3, [r7, #92]	@ 0x5c
 8002fe8:	61fb      	str	r3, [r7, #28]
 8002fea:	61ba      	str	r2, [r7, #24]
   __ASM volatile ("strex %0, %2, %1" : "=&r" (result), "=Q" (*addr) : "r" (value) );
 8002fec:	69b9      	ldr	r1, [r7, #24]
 8002fee:	69fa      	ldr	r2, [r7, #28]
 8002ff0:	e841 2300 	strex	r3, r2, [r1]
 8002ff4:	617b      	str	r3, [r7, #20]
   return(result);
 8002ff6:	697b      	ldr	r3, [r7, #20]
 8002ff8:	2b00      	cmp	r3, #0
 8002ffa:	d1e6      	bne.n	8002fca <UART_RxISR_8BIT+0x13a>

        if (__HAL_UART_GET_FLAG(huart, UART_FLAG_IDLE) == SET)
 8002ffc:	687b      	ldr	r3, [r7, #4]
 8002ffe:	681b      	ldr	r3, [r3, #0]
 8003000:	69db      	ldr	r3, [r3, #28]
 8003002:	f003 0310 	and.w	r3, r3, #16
 8003006:	2b10      	cmp	r3, #16
 8003008:	d103      	bne.n	8003012 <UART_RxISR_8BIT+0x182>
        {
          /* Clear IDLE Flag */
          __HAL_UART_CLEAR_FLAG(huart, UART_CLEAR_IDLEF);
 800300a:	687b      	ldr	r3, [r7, #4]
 800300c:	681b      	ldr	r3, [r3, #0]
 800300e:	2210      	movs	r2, #16
 8003010:	621a      	str	r2, [r3, #32]
#if (USE_HAL_UART_REGISTER_CALLBACKS == 1)
        /*Call registered Rx Event callback*/
        huart->RxEventCallback(huart, huart->RxXferSize);
#else
        /*Call legacy weak Rx Event callback*/
        HAL_UARTEx_RxEventCallback(huart, huart->RxXferSize);
 8003012:	687b      	ldr	r3, [r7, #4]
 8003014:	f8b3 305c 	ldrh.w	r3, [r3, #92]	@ 0x5c
 8003018:	4619      	mov	r1, r3
 800301a:	6878      	ldr	r0, [r7, #4]
 800301c:	f7ff fd6a 	bl	8002af4 <HAL_UARTEx_RxEventCallback>
  else
  {
    /* Clear RXNE interrupt flag */
    __HAL_UART_SEND_REQ(huart, UART_RXDATA_FLUSH_REQUEST);
  }
}
 8003020:	e00b      	b.n	800303a <UART_RxISR_8BIT+0x1aa>
        HAL_UART_RxCpltCallback(huart);
 8003022:	6878      	ldr	r0, [r7, #4]
 8003024:	f7ff fd52 	bl	8002acc <HAL_UART_RxCpltCallback>
}
 8003028:	e007      	b.n	800303a <UART_RxISR_8BIT+0x1aa>
    __HAL_UART_SEND_REQ(huart, UART_RXDATA_FLUSH_REQUEST);
 800302a:	687b      	ldr	r3, [r7, #4]
 800302c:	681b      	ldr	r3, [r3, #0]
 800302e:	699a      	ldr	r2, [r3, #24]
 8003030:	687b      	ldr	r3, [r7, #4]
 8003032:	681b      	ldr	r3, [r3, #0]
 8003034:	f042 0208 	orr.w	r2, r2, #8
 8003038:	619a      	str	r2, [r3, #24]
}
 800303a:	bf00      	nop
 800303c:	3770      	adds	r7, #112	@ 0x70
 800303e:	46bd      	mov	sp, r7
 8003040:	bd80      	pop	{r7, pc}
 8003042:	bf00      	nop
 8003044:	40008000 	.word	0x40008000

08003048 <UART_RxISR_16BIT>:
  *         interruptions have been enabled by HAL_UART_Receive_IT()
  * @param huart UART handle.
  * @retval None
  */
static void UART_RxISR_16BIT(UART_HandleTypeDef *huart)
{
 8003048:	b580      	push	{r7, lr}
 800304a:	b09c      	sub	sp, #112	@ 0x70
 800304c:	af00      	add	r7, sp, #0
 800304e:	6078      	str	r0, [r7, #4]
  uint16_t *tmp;
  uint16_t uhMask = huart->Mask;
 8003050:	687b      	ldr	r3, [r7, #4]
 8003052:	f8b3 3060 	ldrh.w	r3, [r3, #96]	@ 0x60
 8003056:	f8a7 306e 	strh.w	r3, [r7, #110]	@ 0x6e
  uint16_t  uhdata;

  /* Check that a Rx process is ongoing */
  if (huart->RxState == HAL_UART_STATE_BUSY_RX)
 800305a:	687b      	ldr	r3, [r7, #4]
 800305c:	f8d3 308c 	ldr.w	r3, [r3, #140]	@ 0x8c
 8003060:	2b22      	cmp	r3, #34	@ 0x22
 8003062:	f040 80be 	bne.w	80031e2 <UART_RxISR_16BIT+0x19a>
  {
    uhdata = (uint16_t) READ_REG(huart->Instance->RDR);
 8003066:	687b      	ldr	r3, [r7, #4]
 8003068:	681b      	ldr	r3, [r3, #0]
 800306a:	6a5b      	ldr	r3, [r3, #36]	@ 0x24
 800306c:	f8a7 306c 	strh.w	r3, [r7, #108]	@ 0x6c
    tmp = (uint16_t *) huart->pRxBuffPtr ;
 8003070:	687b      	ldr	r3, [r7, #4]
 8003072:	6d9b      	ldr	r3, [r3, #88]	@ 0x58
 8003074:	66bb      	str	r3, [r7, #104]	@ 0x68
    *tmp = (uint16_t)(uhdata & uhMask);
 8003076:	f8b7 206c 	ldrh.w	r2, [r7, #108]	@ 0x6c
 800307a:	f8b7 306e 	ldrh.w	r3, [r7, #110]	@ 0x6e
 800307e:	4013      	ands	r3, r2
 8003080:	b29a      	uxth	r2, r3
 8003082:	6ebb      	ldr	r3, [r7, #104]	@ 0x68
 8003084:	801a      	strh	r2, [r3, #0]
    huart->pRxBuffPtr += 2U;
 8003086:	687b      	ldr	r3, [r7, #4]
 8003088:	6d9b      	ldr	r3, [r3, #88]	@ 0x58
 800308a:	1c9a      	adds	r2, r3, #2
 800308c:	687b      	ldr	r3, [r7, #4]
 800308e:	659a      	str	r2, [r3, #88]	@ 0x58
    huart->RxXferCount--;
 8003090:	687b      	ldr	r3, [r7, #4]
 8003092:	f8b3 305e 	ldrh.w	r3, [r3, #94]	@ 0x5e
 8003096:	b29b      	uxth	r3, r3
 8003098:	3b01      	subs	r3, #1
 800309a:	b29a      	uxth	r2, r3
 800309c:	687b      	ldr	r3, [r7, #4]
 800309e:	f8a3 205e 	strh.w	r2, [r3, #94]	@ 0x5e

    if (huart->RxXferCount == 0U)
 80030a2:	687b      	ldr	r3, [r7, #4]
 80030a4:	f8b3 305e 	ldrh.w	r3, [r3, #94]	@ 0x5e
 80030a8:	b29b      	uxth	r3, r3
 80030aa:	2b00      	cmp	r3, #0
 80030ac:	f040 80a1 	bne.w	80031f2 <UART_RxISR_16BIT+0x1aa>
    {
      /* Disable the UART Parity Error Interrupt and RXNE interrupt*/
      ATOMIC_CLEAR_BIT(huart->Instance->CR1, (USART_CR1_RXNEIE_RXFNEIE | USART_CR1_PEIE));
 80030b0:	687b      	ldr	r3, [r7, #4]
 80030b2:	681b      	ldr	r3, [r3, #0]
 80030b4:	64bb      	str	r3, [r7, #72]	@ 0x48
   __ASM volatile ("ldrex %0, %1" : "=r" (result) : "Q" (*addr) );
 80030b6:	6cbb      	ldr	r3, [r7, #72]	@ 0x48
 80030b8:	e853 3f00 	ldrex	r3, [r3]
 80030bc:	647b      	str	r3, [r7, #68]	@ 0x44
   return(result);
 80030be:	6c7b      	ldr	r3, [r7, #68]	@ 0x44
 80030c0:	f423 7390 	bic.w	r3, r3, #288	@ 0x120
 80030c4:	667b      	str	r3, [r7, #100]	@ 0x64
 80030c6:	687b      	ldr	r3, [r7, #4]
 80030c8:	681b      	ldr	r3, [r3, #0]
 80030ca:	461a      	mov	r2, r3
 80030cc:	6e7b      	ldr	r3, [r7, #100]	@ 0x64
 80030ce:	657b      	str	r3, [r7, #84]	@ 0x54
 80030d0:	653a      	str	r2, [r7, #80]	@ 0x50
   __ASM volatile ("strex %0, %2, %1" : "=&r" (result), "=Q" (*addr) : "r" (value) );
 80030d2:	6d39      	ldr	r1, [r7, #80]	@ 0x50
 80030d4:	6d7a      	ldr	r2, [r7, #84]	@ 0x54
 80030d6:	e841 2300 	strex	r3, r2, [r1]
 80030da:	64fb      	str	r3, [r7, #76]	@ 0x4c
   return(result);
 80030dc:	6cfb      	ldr	r3, [r7, #76]	@ 0x4c
 80030de:	2b00      	cmp	r3, #0
 80030e0:	d1e6      	bne.n	80030b0 <UART_RxISR_16BIT+0x68>

      /* Disable the UART Error Interrupt: (Frame error, noise error, overrun error) */
      ATOMIC_CLEAR_BIT(huart->Instance->CR3, USART_CR3_EIE);
 80030e2:	687b      	ldr	r3, [r7, #4]
 80030e4:	681b      	ldr	r3, [r3, #0]
 80030e6:	3308      	adds	r3, #8
 80030e8:	637b      	str	r3, [r7, #52]	@ 0x34
   __ASM volatile ("ldrex %0, %1" : "=r" (result) : "Q" (*addr) );
 80030ea:	6b7b      	ldr	r3, [r7, #52]	@ 0x34
 80030ec:	e853 3f00 	ldrex	r3, [r3]
 80030f0:	633b      	str	r3, [r7, #48]	@ 0x30
   return(result);
 80030f2:	6b3b      	ldr	r3, [r7, #48]	@ 0x30
 80030f4:	f023 0301 	bic.w	r3, r3, #1
 80030f8:	663b      	str	r3, [r7, #96]	@ 0x60
 80030fa:	687b      	ldr	r3, [r7, #4]
 80030fc:	681b      	ldr	r3, [r3, #0]
 80030fe:	3308      	adds	r3, #8
 8003100:	6e3a      	ldr	r2, [r7, #96]	@ 0x60
 8003102:	643a      	str	r2, [r7, #64]	@ 0x40
 8003104:	63fb      	str	r3, [r7, #60]	@ 0x3c
   __ASM volatile ("strex %0, %2, %1" : "=&r" (result), "=Q" (*addr) : "r" (value) );
 8003106:	6bf9      	ldr	r1, [r7, #60]	@ 0x3c
 8003108:	6c3a      	ldr	r2, [r7, #64]	@ 0x40
 800310a:	e841 2300 	strex	r3, r2, [r1]
 800310e:	63bb      	str	r3, [r7, #56]	@ 0x38
   return(result);
 8003110:	6bbb      	ldr	r3, [r7, #56]	@ 0x38
 8003112:	2b00      	cmp	r3, #0
 8003114:	d1e5      	bne.n	80030e2 <UART_RxISR_16BIT+0x9a>

      /* Rx process is completed, restore huart->RxState to Ready */
      huart->RxState = HAL_UART_STATE_READY;
 8003116:	687b      	ldr	r3, [r7, #4]
 8003118:	2220      	movs	r2, #32
 800311a:	f8c3 208c 	str.w	r2, [r3, #140]	@ 0x8c

      /* Clear RxISR function pointer */
      huart->RxISR = NULL;
 800311e:	687b      	ldr	r3, [r7, #4]
 8003120:	2200      	movs	r2, #0
 8003122:	675a      	str	r2, [r3, #116]	@ 0x74

      /* Initialize type of RxEvent to Transfer Complete */
      huart->RxEventType = HAL_UART_RXEVENT_TC;
 8003124:	687b      	ldr	r3, [r7, #4]
 8003126:	2200      	movs	r2, #0
 8003128:	671a      	str	r2, [r3, #112]	@ 0x70

      if (!(IS_LPUART_INSTANCE(huart->Instance)))
 800312a:	687b      	ldr	r3, [r7, #4]
 800312c:	681b      	ldr	r3, [r3, #0]
 800312e:	4a33      	ldr	r2, [pc, #204]	@ (80031fc <UART_RxISR_16BIT+0x1b4>)
 8003130:	4293      	cmp	r3, r2
 8003132:	d01f      	beq.n	8003174 <UART_RxISR_16BIT+0x12c>
      {
        /* Check that USART RTOEN bit is set */
        if (READ_BIT(huart->Instance->CR2, USART_CR2_RTOEN) != 0U)
 8003134:	687b      	ldr	r3, [r7, #4]
 8003136:	681b      	ldr	r3, [r3, #0]
 8003138:	685b      	ldr	r3, [r3, #4]
 800313a:	f403 0300 	and.w	r3, r3, #8388608	@ 0x800000
 800313e:	2b00      	cmp	r3, #0
 8003140:	d018      	beq.n	8003174 <UART_RxISR_16BIT+0x12c>
        {
          /* Enable the UART Receiver Timeout Interrupt */
          ATOMIC_CLEAR_BIT(huart->Instance->CR1, USART_CR1_RTOIE);
 8003142:	687b      	ldr	r3, [r7, #4]
 8003144:	681b      	ldr	r3, [r3, #0]
 8003146:	623b      	str	r3, [r7, #32]
   __ASM volatile ("ldrex %0, %1" : "=r" (result) : "Q" (*addr) );
 8003148:	6a3b      	ldr	r3, [r7, #32]
 800314a:	e853 3f00 	ldrex	r3, [r3]
 800314e:	61fb      	str	r3, [r7, #28]
   return(result);
 8003150:	69fb      	ldr	r3, [r7, #28]
 8003152:	f023 6380 	bic.w	r3, r3, #67108864	@ 0x4000000
 8003156:	65fb      	str	r3, [r7, #92]	@ 0x5c
 8003158:	687b      	ldr	r3, [r7, #4]
 800315a:	681b      	ldr	r3, [r3, #0]
 800315c:	461a      	mov	r2, r3
 800315e:	6dfb      	ldr	r3, [r7, #92]	@ 0x5c
 8003160:	62fb      	str	r3, [r7, #44]	@ 0x2c
 8003162:	62ba      	str	r2, [r7, #40]	@ 0x28
   __ASM volatile ("strex %0, %2, %1" : "=&r" (result), "=Q" (*addr) : "r" (value) );
 8003164:	6ab9      	ldr	r1, [r7, #40]	@ 0x28
 8003166:	6afa      	ldr	r2, [r7, #44]	@ 0x2c
 8003168:	e841 2300 	strex	r3, r2, [r1]
 800316c:	627b      	str	r3, [r7, #36]	@ 0x24
   return(result);
 800316e:	6a7b      	ldr	r3, [r7, #36]	@ 0x24
 8003170:	2b00      	cmp	r3, #0
 8003172:	d1e6      	bne.n	8003142 <UART_RxISR_16BIT+0xfa>
        }
      }

      /* Check current reception Mode :
         If Reception till IDLE event has been selected : */
      if (huart->ReceptionType == HAL_UART_RECEPTION_TOIDLE)
 8003174:	687b      	ldr	r3, [r7, #4]
 8003176:	6edb      	ldr	r3, [r3, #108]	@ 0x6c
 8003178:	2b01      	cmp	r3, #1
 800317a:	d12e      	bne.n	80031da <UART_RxISR_16BIT+0x192>
      {
        /* Set reception type to Standard */
        huart->ReceptionType = HAL_UART_RECEPTION_STANDARD;
 800317c:	687b      	ldr	r3, [r7, #4]
 800317e:	2200      	movs	r2, #0
 8003180:	66da      	str	r2, [r3, #108]	@ 0x6c

        /* Disable IDLE interrupt */
        ATOMIC_CLEAR_BIT(huart->Instance->CR1, USART_CR1_IDLEIE);
 8003182:	687b      	ldr	r3, [r7, #4]
 8003184:	681b      	ldr	r3, [r3, #0]
 8003186:	60fb      	str	r3, [r7, #12]
   __ASM volatile ("ldrex %0, %1" : "=r" (result) : "Q" (*addr) );
 8003188:	68fb      	ldr	r3, [r7, #12]
 800318a:	e853 3f00 	ldrex	r3, [r3]
 800318e:	60bb      	str	r3, [r7, #8]
   return(result);
 8003190:	68bb      	ldr	r3, [r7, #8]
 8003192:	f023 0310 	bic.w	r3, r3, #16
 8003196:	65bb      	str	r3, [r7, #88]	@ 0x58
 8003198:	687b      	ldr	r3, [r7, #4]
 800319a:	681b      	ldr	r3, [r3, #0]
 800319c:	461a      	mov	r2, r3
 800319e:	6dbb      	ldr	r3, [r7, #88]	@ 0x58
 80031a0:	61bb      	str	r3, [r7, #24]
 80031a2:	617a      	str	r2, [r7, #20]
   __ASM volatile ("strex %0, %2, %1" : "=&r" (result), "=Q" (*addr) : "r" (value) );
 80031a4:	6979      	ldr	r1, [r7, #20]
 80031a6:	69ba      	ldr	r2, [r7, #24]
 80031a8:	e841 2300 	strex	r3, r2, [r1]
 80031ac:	613b      	str	r3, [r7, #16]
   return(result);
 80031ae:	693b      	ldr	r3, [r7, #16]
 80031b0:	2b00      	cmp	r3, #0
 80031b2:	d1e6      	bne.n	8003182 <UART_RxISR_16BIT+0x13a>

        if (__HAL_UART_GET_FLAG(huart, UART_FLAG_IDLE) == SET)
 80031b4:	687b      	ldr	r3, [r7, #4]
 80031b6:	681b      	ldr	r3, [r3, #0]
 80031b8:	69db      	ldr	r3, [r3, #28]
 80031ba:	f003 0310 	and.w	r3, r3, #16
 80031be:	2b10      	cmp	r3, #16
 80031c0:	d103      	bne.n	80031ca <UART_RxISR_16BIT+0x182>
        {
          /* Clear IDLE Flag */
          __HAL_UART_CLEAR_FLAG(huart, UART_CLEAR_IDLEF);
 80031c2:	687b      	ldr	r3, [r7, #4]
 80031c4:	681b      	ldr	r3, [r3, #0]
 80031c6:	2210      	movs	r2, #16
 80031c8:	621a      	str	r2, [r3, #32]
#if (USE_HAL_UART_REGISTER_CALLBACKS == 1)
        /*Call registered Rx Event callback*/
        huart->RxEventCallback(huart, huart->RxXferSize);
#else
        /*Call legacy weak Rx Event callback*/
        HAL_UARTEx_RxEventCallback(huart, huart->RxXferSize);
 80031ca:	687b      	ldr	r3, [r7, #4]
 80031cc:	f8b3 305c 	ldrh.w	r3, [r3, #92]	@ 0x5c
 80031d0:	4619      	mov	r1, r3
 80031d2:	6878      	ldr	r0, [r7, #4]
 80031d4:	f7ff fc8e 	bl	8002af4 <HAL_UARTEx_RxEventCallback>
  else
  {
    /* Clear RXNE interrupt flag */
    __HAL_UART_SEND_REQ(huart, UART_RXDATA_FLUSH_REQUEST);
  }
}
 80031d8:	e00b      	b.n	80031f2 <UART_RxISR_16BIT+0x1aa>
        HAL_UART_RxCpltCallback(huart);
 80031da:	6878      	ldr	r0, [r7, #4]
 80031dc:	f7ff fc76 	bl	8002acc <HAL_UART_RxCpltCallback>
}
 80031e0:	e007      	b.n	80031f2 <UART_RxISR_16BIT+0x1aa>
    __HAL_UART_SEND_REQ(huart, UART_RXDATA_FLUSH_REQUEST);
 80031e2:	687b      	ldr	r3, [r7, #4]
 80031e4:	681b      	ldr	r3, [r3, #0]
 80031e6:	699a      	ldr	r2, [r3, #24]
 80031e8:	687b      	ldr	r3, [r7, #4]
 80031ea:	681b      	ldr	r3, [r3, #0]
 80031ec:	f042 0208 	orr.w	r2, r2, #8
 80031f0:	619a      	str	r2, [r3, #24]
}
 80031f2:	bf00      	nop
 80031f4:	3770      	adds	r7, #112	@ 0x70
 80031f6:	46bd      	mov	sp, r7
 80031f8:	bd80      	pop	{r7, pc}
 80031fa:	bf00      	nop
 80031fc:	40008000 	.word	0x40008000

08003200 <UART_RxISR_8BIT_FIFOEN>:
  *         interruptions have been enabled by HAL_UART_Receive_IT()
  * @param huart UART handle.
  * @retval None
  */
static void UART_RxISR_8BIT_FIFOEN(UART_HandleTypeDef *huart)
{
 8003200:	b580      	push	{r7, lr}
 8003202:	b0ac      	sub	sp, #176	@ 0xb0
 8003204:	af00      	add	r7, sp, #0
 8003206:	6078      	str	r0, [r7, #4]
  uint16_t  uhMask = huart->Mask;
 8003208:	687b      	ldr	r3, [r7, #4]
 800320a:	f8b3 3060 	ldrh.w	r3, [r3, #96]	@ 0x60
 800320e:	f8a7 30aa 	strh.w	r3, [r7, #170]	@ 0xaa
  uint16_t  uhdata;
  uint16_t  nb_rx_data;
  uint16_t  rxdatacount;
  uint32_t  isrflags = READ_REG(huart->Instance->ISR);
 8003212:	687b      	ldr	r3, [r7, #4]
 8003214:	681b      	ldr	r3, [r3, #0]
 8003216:	69db      	ldr	r3, [r3, #28]
 8003218:	f8c7 30ac 	str.w	r3, [r7, #172]	@ 0xac
  uint32_t  cr1its   = READ_REG(huart->Instance->CR1);
 800321c:	687b      	ldr	r3, [r7, #4]
 800321e:	681b      	ldr	r3, [r3, #0]
 8003220:	681b      	ldr	r3, [r3, #0]
 8003222:	f8c7 30a4 	str.w	r3, [r7, #164]	@ 0xa4
  uint32_t  cr3its   = READ_REG(huart->Instance->CR3);
 8003226:	687b      	ldr	r3, [r7, #4]
 8003228:	681b      	ldr	r3, [r3, #0]
 800322a:	689b      	ldr	r3, [r3, #8]
 800322c:	f8c7 30a0 	str.w	r3, [r7, #160]	@ 0xa0

  /* Check that a Rx process is ongoing */
  if (huart->RxState == HAL_UART_STATE_BUSY_RX)
 8003230:	687b      	ldr	r3, [r7, #4]
 8003232:	f8d3 308c 	ldr.w	r3, [r3, #140]	@ 0x8c
 8003236:	2b22      	cmp	r3, #34	@ 0x22
 8003238:	f040 8183 	bne.w	8003542 <UART_RxISR_8BIT_FIFOEN+0x342>
  {
    nb_rx_data = huart->NbRxDataToProcess;
 800323c:	687b      	ldr	r3, [r7, #4]
 800323e:	f8b3 3068 	ldrh.w	r3, [r3, #104]	@ 0x68
 8003242:	f8a7 309e 	strh.w	r3, [r7, #158]	@ 0x9e
    while ((nb_rx_data > 0U) && ((isrflags & USART_ISR_RXNE_RXFNE) != 0U))
 8003246:	e126      	b.n	8003496 <UART_RxISR_8BIT_FIFOEN+0x296>
    {
      uhdata = (uint16_t) READ_REG(huart->Instance->RDR);
 8003248:	687b      	ldr	r3, [r7, #4]
 800324a:	681b      	ldr	r3, [r3, #0]
 800324c:	6a5b      	ldr	r3, [r3, #36]	@ 0x24
 800324e:	f8a7 309c 	strh.w	r3, [r7, #156]	@ 0x9c
      *huart->pRxBuffPtr = (uint8_t)(uhdata & (uint8_t)uhMask);
 8003252:	f8b7 309c 	ldrh.w	r3, [r7, #156]	@ 0x9c
 8003256:	b2d9      	uxtb	r1, r3
 8003258:	f8b7 30aa 	ldrh.w	r3, [r7, #170]	@ 0xaa
 800325c:	b2da      	uxtb	r2, r3
 800325e:	687b      	ldr	r3, [r7, #4]
 8003260:	6d9b      	ldr	r3, [r3, #88]	@ 0x58
 8003262:	400a      	ands	r2, r1
 8003264:	b2d2      	uxtb	r2, r2
 8003266:	701a      	strb	r2, [r3, #0]
      huart->pRxBuffPtr++;
 8003268:	687b      	ldr	r3, [r7, #4]
 800326a:	6d9b      	ldr	r3, [r3, #88]	@ 0x58
 800326c:	1c5a      	adds	r2, r3, #1
 800326e:	687b      	ldr	r3, [r7, #4]
 8003270:	659a      	str	r2, [r3, #88]	@ 0x58
      huart->RxXferCount--;
 8003272:	687b      	ldr	r3, [r7, #4]
 8003274:	f8b3 305e 	ldrh.w	r3, [r3, #94]	@ 0x5e
 8003278:	b29b      	uxth	r3, r3
 800327a:	3b01      	subs	r3, #1
 800327c:	b29a      	uxth	r2, r3
 800327e:	687b      	ldr	r3, [r7, #4]
 8003280:	f8a3 205e 	strh.w	r2, [r3, #94]	@ 0x5e
      isrflags = READ_REG(huart->Instance->ISR);
 8003284:	687b      	ldr	r3, [r7, #4]
 8003286:	681b      	ldr	r3, [r3, #0]
 8003288:	69db      	ldr	r3, [r3, #28]
 800328a:	f8c7 30ac 	str.w	r3, [r7, #172]	@ 0xac

      /* If some non blocking errors occurred */
      if ((isrflags & (USART_ISR_PE | USART_ISR_FE | USART_ISR_NE)) != 0U)
 800328e:	f8d7 30ac 	ldr.w	r3, [r7, #172]	@ 0xac
 8003292:	f003 0307 	and.w	r3, r3, #7
 8003296:	2b00      	cmp	r3, #0
 8003298:	d053      	beq.n	8003342 <UART_RxISR_8BIT_FIFOEN+0x142>
      {
        /* UART parity error interrupt occurred -------------------------------------*/
        if (((isrflags & USART_ISR_PE) != 0U) && ((cr1its & USART_CR1_PEIE) != 0U))
 800329a:	f8d7 30ac 	ldr.w	r3, [r7, #172]	@ 0xac
 800329e:	f003 0301 	and.w	r3, r3, #1
 80032a2:	2b00      	cmp	r3, #0
 80032a4:	d011      	beq.n	80032ca <UART_RxISR_8BIT_FIFOEN+0xca>
 80032a6:	f8d7 30a4 	ldr.w	r3, [r7, #164]	@ 0xa4
 80032aa:	f403 7380 	and.w	r3, r3, #256	@ 0x100
 80032ae:	2b00      	cmp	r3, #0
 80032b0:	d00b      	beq.n	80032ca <UART_RxISR_8BIT_FIFOEN+0xca>
        {
          __HAL_UART_CLEAR_FLAG(huart, UART_CLEAR_PEF);
 80032b2:	687b      	ldr	r3, [r7, #4]
 80032b4:	681b      	ldr	r3, [r3, #0]
 80032b6:	2201      	movs	r2, #1
 80032b8:	621a      	str	r2, [r3, #32]

          huart->ErrorCode |= HAL_UART_ERROR_PE;
 80032ba:	687b      	ldr	r3, [r7, #4]
 80032bc:	f8d3 3090 	ldr.w	r3, [r3, #144]	@ 0x90
 80032c0:	f043 0201 	orr.w	r2, r3, #1
 80032c4:	687b      	ldr	r3, [r7, #4]
 80032c6:	f8c3 2090 	str.w	r2, [r3, #144]	@ 0x90
        }

        /* UART frame error interrupt occurred --------------------------------------*/
        if (((isrflags & USART_ISR_FE) != 0U) && ((cr3its & USART_CR3_EIE) != 0U))
 80032ca:	f8d7 30ac 	ldr.w	r3, [r7, #172]	@ 0xac
 80032ce:	f003 0302 	and.w	r3, r3, #2
 80032d2:	2b00      	cmp	r3, #0
 80032d4:	d011      	beq.n	80032fa <UART_RxISR_8BIT_FIFOEN+0xfa>
 80032d6:	f8d7 30a0 	ldr.w	r3, [r7, #160]	@ 0xa0
 80032da:	f003 0301 	and.w	r3, r3, #1
 80032de:	2b00      	cmp	r3, #0
 80032e0:	d00b      	beq.n	80032fa <UART_RxISR_8BIT_FIFOEN+0xfa>
        {
          __HAL_UART_CLEAR_FLAG(huart, UART_CLEAR_FEF);
 80032e2:	687b      	ldr	r3, [r7, #4]
 80032e4:	681b      	ldr	r3, [r3, #0]
 80032e6:	2202      	movs	r2, #2
 80032e8:	621a      	str	r2, [r3, #32]

          huart->ErrorCode |= HAL_UART_ERROR_FE;
 80032ea:	687b      	ldr	r3, [r7, #4]
 80032ec:	f8d3 3090 	ldr.w	r3, [r3, #144]	@ 0x90
 80032f0:	f043 0204 	orr.w	r2, r3, #4
 80032f4:	687b      	ldr	r3, [r7, #4]
 80032f6:	f8c3 2090 	str.w	r2, [r3, #144]	@ 0x90
        }

        /* UART noise error interrupt occurred --------------------------------------*/
        if (((isrflags & USART_ISR_NE) != 0U) && ((cr3its & USART_CR3_EIE) != 0U))
 80032fa:	f8d7 30ac 	ldr.w	r3, [r7, #172]	@ 0xac
 80032fe:	f003 0304 	and.w	r3, r3, #4
 8003302:	2b00      	cmp	r3, #0
 8003304:	d011      	beq.n	800332a <UART_RxISR_8BIT_FIFOEN+0x12a>
 8003306:	f8d7 30a0 	ldr.w	r3, [r7, #160]	@ 0xa0
 800330a:	f003 0301 	and.w	r3, r3, #1
 800330e:	2b00      	cmp	r3, #0
 8003310:	d00b      	beq.n	800332a <UART_RxISR_8BIT_FIFOEN+0x12a>
        {
          __HAL_UART_CLEAR_FLAG(huart, UART_CLEAR_NEF);
 8003312:	687b      	ldr	r3, [r7, #4]
 8003314:	681b      	ldr	r3, [r3, #0]
 8003316:	2204      	movs	r2, #4
 8003318:	621a      	str	r2, [r3, #32]

          huart->ErrorCode |= HAL_UART_ERROR_NE;
 800331a:	687b      	ldr	r3, [r7, #4]
 800331c:	f8d3 3090 	ldr.w	r3, [r3, #144]	@ 0x90
 8003320:	f043 0202 	orr.w	r2, r3, #2
 8003324:	687b      	ldr	r3, [r7, #4]
 8003326:	f8c3 2090 	str.w	r2, [r3, #144]	@ 0x90
        }

        /* Call UART Error Call back function if need be ----------------------------*/
        if (huart->ErrorCode != HAL_UART_ERROR_NONE)
 800332a:	687b      	ldr	r3, [r7, #4]
 800332c:	f8d3 3090 	ldr.w	r3, [r3, #144]	@ 0x90
 8003330:	2b00      	cmp	r3, #0
 8003332:	d006      	beq.n	8003342 <UART_RxISR_8BIT_FIFOEN+0x142>
#if (USE_HAL_UART_REGISTER_CALLBACKS == 1)
          /*Call registered error callback*/
          huart->ErrorCallback(huart);
#else
          /*Call legacy weak error callback*/
          HAL_UART_ErrorCallback(huart);
 8003334:	6878      	ldr	r0, [r7, #4]
 8003336:	f7ff fbd3 	bl	8002ae0 <HAL_UART_ErrorCallback>
#endif /* USE_HAL_UART_REGISTER_CALLBACKS */
          huart->ErrorCode = HAL_UART_ERROR_NONE;
 800333a:	687b      	ldr	r3, [r7, #4]
 800333c:	2200      	movs	r2, #0
 800333e:	f8c3 2090 	str.w	r2, [r3, #144]	@ 0x90
        }
      }

      if (huart->RxXferCount == 0U)
 8003342:	687b      	ldr	r3, [r7, #4]
 8003344:	f8b3 305e 	ldrh.w	r3, [r3, #94]	@ 0x5e
 8003348:	b29b      	uxth	r3, r3
 800334a:	2b00      	cmp	r3, #0
 800334c:	f040 80a3 	bne.w	8003496 <UART_RxISR_8BIT_FIFOEN+0x296>
      {
        /* Disable the UART Parity Error Interrupt and RXFT interrupt*/
        ATOMIC_CLEAR_BIT(huart->Instance->CR1, USART_CR1_PEIE);
 8003350:	687b      	ldr	r3, [r7, #4]
 8003352:	681b      	ldr	r3, [r3, #0]
 8003354:	673b      	str	r3, [r7, #112]	@ 0x70
   __ASM volatile ("ldrex %0, %1" : "=r" (result) : "Q" (*addr) );
 8003356:	6f3b      	ldr	r3, [r7, #112]	@ 0x70
 8003358:	e853 3f00 	ldrex	r3, [r3]
 800335c:	66fb      	str	r3, [r7, #108]	@ 0x6c
   return(result);
 800335e:	6efb      	ldr	r3, [r7, #108]	@ 0x6c
 8003360:	f423 7380 	bic.w	r3, r3, #256	@ 0x100
 8003364:	f8c7 3098 	str.w	r3, [r7, #152]	@ 0x98
 8003368:	687b      	ldr	r3, [r7, #4]
 800336a:	681b      	ldr	r3, [r3, #0]
 800336c:	461a      	mov	r2, r3
 800336e:	f8d7 3098 	ldr.w	r3, [r7, #152]	@ 0x98
 8003372:	67fb      	str	r3, [r7, #124]	@ 0x7c
 8003374:	67ba      	str	r2, [r7, #120]	@ 0x78
   __ASM volatile ("strex %0, %2, %1" : "=&r" (result), "=Q" (*addr) : "r" (value) );
 8003376:	6fb9      	ldr	r1, [r7, #120]	@ 0x78
 8003378:	6ffa      	ldr	r2, [r7, #124]	@ 0x7c
 800337a:	e841 2300 	strex	r3, r2, [r1]
 800337e:	677b      	str	r3, [r7, #116]	@ 0x74
   return(result);
 8003380:	6f7b      	ldr	r3, [r7, #116]	@ 0x74
 8003382:	2b00      	cmp	r3, #0
 8003384:	d1e4      	bne.n	8003350 <UART_RxISR_8BIT_FIFOEN+0x150>

        /* Disable the UART Error Interrupt: (Frame error, noise error, overrun error)
           and RX FIFO Threshold interrupt */
        ATOMIC_CLEAR_BIT(huart->Instance->CR3, (USART_CR3_EIE | USART_CR3_RXFTIE));
 8003386:	687b      	ldr	r3, [r7, #4]
 8003388:	681b      	ldr	r3, [r3, #0]
 800338a:	3308      	adds	r3, #8
 800338c:	65fb      	str	r3, [r7, #92]	@ 0x5c
   __ASM volatile ("ldrex %0, %1" : "=r" (result) : "Q" (*addr) );
 800338e:	6dfb      	ldr	r3, [r7, #92]	@ 0x5c
 8003390:	e853 3f00 	ldrex	r3, [r3]
 8003394:	65bb      	str	r3, [r7, #88]	@ 0x58
   return(result);
 8003396:	6dbb      	ldr	r3, [r7, #88]	@ 0x58
 8003398:	f023 5380 	bic.w	r3, r3, #268435456	@ 0x10000000
 800339c:	f023 0301 	bic.w	r3, r3, #1
 80033a0:	f8c7 3094 	str.w	r3, [r7, #148]	@ 0x94
 80033a4:	687b      	ldr	r3, [r7, #4]
 80033a6:	681b      	ldr	r3, [r3, #0]
 80033a8:	3308      	adds	r3, #8
 80033aa:	f8d7 2094 	ldr.w	r2, [r7, #148]	@ 0x94
 80033ae:	66ba      	str	r2, [r7, #104]	@ 0x68
 80033b0:	667b      	str	r3, [r7, #100]	@ 0x64
   __ASM volatile ("strex %0, %2, %1" : "=&r" (result), "=Q" (*addr) : "r" (value) );
 80033b2:	6e79      	ldr	r1, [r7, #100]	@ 0x64
 80033b4:	6eba      	ldr	r2, [r7, #104]	@ 0x68
 80033b6:	e841 2300 	strex	r3, r2, [r1]
 80033ba:	663b      	str	r3, [r7, #96]	@ 0x60
   return(result);
 80033bc:	6e3b      	ldr	r3, [r7, #96]	@ 0x60
 80033be:	2b00      	cmp	r3, #0
 80033c0:	d1e1      	bne.n	8003386 <UART_RxISR_8BIT_FIFOEN+0x186>

        /* Rx process is completed, restore huart->RxState to Ready */
        huart->RxState = HAL_UART_STATE_READY;
 80033c2:	687b      	ldr	r3, [r7, #4]
 80033c4:	2220      	movs	r2, #32
 80033c6:	f8c3 208c 	str.w	r2, [r3, #140]	@ 0x8c

        /* Clear RxISR function pointer */
        huart->RxISR = NULL;
 80033ca:	687b      	ldr	r3, [r7, #4]
 80033cc:	2200      	movs	r2, #0
 80033ce:	675a      	str	r2, [r3, #116]	@ 0x74

        /* Initialize type of RxEvent to Transfer Complete */
        huart->RxEventType = HAL_UART_RXEVENT_TC;
 80033d0:	687b      	ldr	r3, [r7, #4]
 80033d2:	2200      	movs	r2, #0
 80033d4:	671a      	str	r2, [r3, #112]	@ 0x70

        if (!(IS_LPUART_INSTANCE(huart->Instance)))
 80033d6:	687b      	ldr	r3, [r7, #4]
 80033d8:	681b      	ldr	r3, [r3, #0]
 80033da:	4a60      	ldr	r2, [pc, #384]	@ (800355c <UART_RxISR_8BIT_FIFOEN+0x35c>)
 80033dc:	4293      	cmp	r3, r2
 80033de:	d021      	beq.n	8003424 <UART_RxISR_8BIT_FIFOEN+0x224>
        {
          /* Check that USART RTOEN bit is set */
          if (READ_BIT(huart->Instance->CR2, USART_CR2_RTOEN) != 0U)
 80033e0:	687b      	ldr	r3, [r7, #4]
 80033e2:	681b      	ldr	r3, [r3, #0]
 80033e4:	685b      	ldr	r3, [r3, #4]
 80033e6:	f403 0300 	and.w	r3, r3, #8388608	@ 0x800000
 80033ea:	2b00      	cmp	r3, #0
 80033ec:	d01a      	beq.n	8003424 <UART_RxISR_8BIT_FIFOEN+0x224>
          {
            /* Enable the UART Receiver Timeout Interrupt */
            ATOMIC_CLEAR_BIT(huart->Instance->CR1, USART_CR1_RTOIE);
 80033ee:	687b      	ldr	r3, [r7, #4]
 80033f0:	681b      	ldr	r3, [r3, #0]
 80033f2:	64bb      	str	r3, [r7, #72]	@ 0x48
   __ASM volatile ("ldrex %0, %1" : "=r" (result) : "Q" (*addr) );
 80033f4:	6cbb      	ldr	r3, [r7, #72]	@ 0x48
 80033f6:	e853 3f00 	ldrex	r3, [r3]
 80033fa:	647b      	str	r3, [r7, #68]	@ 0x44
   return(result);
 80033fc:	6c7b      	ldr	r3, [r7, #68]	@ 0x44
 80033fe:	f023 6380 	bic.w	r3, r3, #67108864	@ 0x4000000
 8003402:	f8c7 3090 	str.w	r3, [r7, #144]	@ 0x90
 8003406:	687b      	ldr	r3, [r7, #4]
 8003408:	681b      	ldr	r3, [r3, #0]
 800340a:	461a      	mov	r2, r3
 800340c:	f8d7 3090 	ldr.w	r3, [r7, #144]	@ 0x90
 8003410:	657b      	str	r3, [r7, #84]	@ 0x54
 8003412:	653a      	str	r2, [r7, #80]	@ 0x50
   __ASM volatile ("strex %0, %2, %1" : "=&r" (result), "=Q" (*addr) : "r" (value) );
 8003414:	6d39      	ldr	r1, [r7, #80]	@ 0x50
 8003416:	6d7a      	ldr	r2, [r7, #84]	@ 0x54
 8003418:	e841 2300 	strex	r3, r2, [r1]
 800341c:	64fb      	str	r3, [r7, #76]	@ 0x4c
   return(result);
 800341e:	6cfb      	ldr	r3, [r7, #76]	@ 0x4c
 8003420:	2b00      	cmp	r3, #0
 8003422:	d1e4      	bne.n	80033ee <UART_RxISR_8BIT_FIFOEN+0x1ee>
          }
        }

        /* Check current reception Mode :
           If Reception till IDLE event has been selected : */
        if (huart->ReceptionType == HAL_UART_RECEPTION_TOIDLE)
 8003424:	687b      	ldr	r3, [r7, #4]
 8003426:	6edb      	ldr	r3, [r3, #108]	@ 0x6c
 8003428:	2b01      	cmp	r3, #1
 800342a:	d130      	bne.n	800348e <UART_RxISR_8BIT_FIFOEN+0x28e>
        {
          /* Set reception type to Standard */
          huart->ReceptionType = HAL_UART_RECEPTION_STANDARD;
 800342c:	687b      	ldr	r3, [r7, #4]
 800342e:	2200      	movs	r2, #0
 8003430:	66da      	str	r2, [r3, #108]	@ 0x6c

          /* Disable IDLE interrupt */
          ATOMIC_CLEAR_BIT(huart->Instance->CR1, USART_CR1_IDLEIE);
 8003432:	687b      	ldr	r3, [r7, #4]
 8003434:	681b      	ldr	r3, [r3, #0]
 8003436:	637b      	str	r3, [r7, #52]	@ 0x34
   __ASM volatile ("ldrex %0, %1" : "=r" (result) : "Q" (*addr) );
 8003438:	6b7b      	ldr	r3, [r7, #52]	@ 0x34
 800343a:	e853 3f00 	ldrex	r3, [r3]
 800343e:	633b      	str	r3, [r7, #48]	@ 0x30
   return(result);
 8003440:	6b3b      	ldr	r3, [r7, #48]	@ 0x30
 8003442:	f023 0310 	bic.w	r3, r3, #16
 8003446:	f8c7 308c 	str.w	r3, [r7, #140]	@ 0x8c
 800344a:	687b      	ldr	r3, [r7, #4]
 800344c:	681b      	ldr	r3, [r3, #0]
 800344e:	461a      	mov	r2, r3
 8003450:	f8d7 308c 	ldr.w	r3, [r7, #140]	@ 0x8c
 8003454:	643b      	str	r3, [r7, #64]	@ 0x40
 8003456:	63fa      	str	r2, [r7, #60]	@ 0x3c
   __ASM volatile ("strex %0, %2, %1" : "=&r" (result), "=Q" (*addr) : "r" (value) );
 8003458:	6bf9      	ldr	r1, [r7, #60]	@ 0x3c
 800345a:	6c3a      	ldr	r2, [r7, #64]	@ 0x40
 800345c:	e841 2300 	strex	r3, r2, [r1]
 8003460:	63bb      	str	r3, [r7, #56]	@ 0x38
   return(result);
 8003462:	6bbb      	ldr	r3, [r7, #56]	@ 0x38
 8003464:	2b00      	cmp	r3, #0
 8003466:	d1e4      	bne.n	8003432 <UART_RxISR_8BIT_FIFOEN+0x232>

          if (__HAL_UART_GET_FLAG(huart, UART_FLAG_IDLE) == SET)
 8003468:	687b      	ldr	r3, [r7, #4]
 800346a:	681b      	ldr	r3, [r3, #0]
 800346c:	69db      	ldr	r3, [r3, #28]
 800346e:	f003 0310 	and.w	r3, r3, #16
 8003472:	2b10      	cmp	r3, #16
 8003474:	d103      	bne.n	800347e <UART_RxISR_8BIT_FIFOEN+0x27e>
          {
            /* Clear IDLE Flag */
            __HAL_UART_CLEAR_FLAG(huart, UART_CLEAR_IDLEF);
 8003476:	687b      	ldr	r3, [r7, #4]
 8003478:	681b      	ldr	r3, [r3, #0]
 800347a:	2210      	movs	r2, #16
 800347c:	621a      	str	r2, [r3, #32]
#if (USE_HAL_UART_REGISTER_CALLBACKS == 1)
          /*Call registered Rx Event callback*/
          huart->RxEventCallback(huart, huart->RxXferSize);
#else
          /*Call legacy weak Rx Event callback*/
          HAL_UARTEx_RxEventCallback(huart, huart->RxXferSize);
 800347e:	687b      	ldr	r3, [r7, #4]
 8003480:	f8b3 305c 	ldrh.w	r3, [r3, #92]	@ 0x5c
 8003484:	4619      	mov	r1, r3
 8003486:	6878      	ldr	r0, [r7, #4]
 8003488:	f7ff fb34 	bl	8002af4 <HAL_UARTEx_RxEventCallback>
#else
          /*Call legacy weak Rx complete callback*/
          HAL_UART_RxCpltCallback(huart);
#endif /* USE_HAL_UART_REGISTER_CALLBACKS */
        }
        break;
 800348c:	e00e      	b.n	80034ac <UART_RxISR_8BIT_FIFOEN+0x2ac>
          HAL_UART_RxCpltCallback(huart);
 800348e:	6878      	ldr	r0, [r7, #4]
 8003490:	f7ff fb1c 	bl	8002acc <HAL_UART_RxCpltCallback>
        break;
 8003494:	e00a      	b.n	80034ac <UART_RxISR_8BIT_FIFOEN+0x2ac>
    while ((nb_rx_data > 0U) && ((isrflags & USART_ISR_RXNE_RXFNE) != 0U))
 8003496:	f8b7 309e 	ldrh.w	r3, [r7, #158]	@ 0x9e
 800349a:	2b00      	cmp	r3, #0
 800349c:	d006      	beq.n	80034ac <UART_RxISR_8BIT_FIFOEN+0x2ac>
 800349e:	f8d7 30ac 	ldr.w	r3, [r7, #172]	@ 0xac
 80034a2:	f003 0320 	and.w	r3, r3, #32
 80034a6:	2b00      	cmp	r3, #0
 80034a8:	f47f aece 	bne.w	8003248 <UART_RxISR_8BIT_FIFOEN+0x48>

    /* When remaining number of bytes to receive is less than the RX FIFO
    threshold, next incoming frames are processed as if FIFO mode was
    disabled (i.e. one interrupt per received frame).
    */
    rxdatacount = huart->RxXferCount;
 80034ac:	687b      	ldr	r3, [r7, #4]
 80034ae:	f8b3 305e 	ldrh.w	r3, [r3, #94]	@ 0x5e
 80034b2:	f8a7 308a 	strh.w	r3, [r7, #138]	@ 0x8a
    if ((rxdatacount != 0U) && (rxdatacount < huart->NbRxDataToProcess))
 80034b6:	f8b7 308a 	ldrh.w	r3, [r7, #138]	@ 0x8a
 80034ba:	2b00      	cmp	r3, #0
 80034bc:	d049      	beq.n	8003552 <UART_RxISR_8BIT_FIFOEN+0x352>
 80034be:	687b      	ldr	r3, [r7, #4]
 80034c0:	f8b3 3068 	ldrh.w	r3, [r3, #104]	@ 0x68
 80034c4:	f8b7 208a 	ldrh.w	r2, [r7, #138]	@ 0x8a
 80034c8:	429a      	cmp	r2, r3
 80034ca:	d242      	bcs.n	8003552 <UART_RxISR_8BIT_FIFOEN+0x352>
    {
      /* Disable the UART RXFT interrupt*/
      ATOMIC_CLEAR_BIT(huart->Instance->CR3, USART_CR3_RXFTIE);
 80034cc:	687b      	ldr	r3, [r7, #4]
 80034ce:	681b      	ldr	r3, [r3, #0]
 80034d0:	3308      	adds	r3, #8
 80034d2:	623b      	str	r3, [r7, #32]
   __ASM volatile ("ldrex %0, %1" : "=r" (result) : "Q" (*addr) );
 80034d4:	6a3b      	ldr	r3, [r7, #32]
 80034d6:	e853 3f00 	ldrex	r3, [r3]
 80034da:	61fb      	str	r3, [r7, #28]
   return(result);
 80034dc:	69fb      	ldr	r3, [r7, #28]
 80034de:	f023 5380 	bic.w	r3, r3, #268435456	@ 0x10000000
 80034e2:	f8c7 3084 	str.w	r3, [r7, #132]	@ 0x84
 80034e6:	687b      	ldr	r3, [r7, #4]
 80034e8:	681b      	ldr	r3, [r3, #0]
 80034ea:	3308      	adds	r3, #8
 80034ec:	f8d7 2084 	ldr.w	r2, [r7, #132]	@ 0x84
 80034f0:	62fa      	str	r2, [r7, #44]	@ 0x2c
 80034f2:	62bb      	str	r3, [r7, #40]	@ 0x28
   __ASM volatile ("strex %0, %2, %1" : "=&r" (result), "=Q" (*addr) : "r" (value) );
 80034f4:	6ab9      	ldr	r1, [r7, #40]	@ 0x28
 80034f6:	6afa      	ldr	r2, [r7, #44]	@ 0x2c
 80034f8:	e841 2300 	strex	r3, r2, [r1]
 80034fc:	627b      	str	r3, [r7, #36]	@ 0x24
   return(result);
 80034fe:	6a7b      	ldr	r3, [r7, #36]	@ 0x24
 8003500:	2b00      	cmp	r3, #0
 8003502:	d1e3      	bne.n	80034cc <UART_RxISR_8BIT_FIFOEN+0x2cc>

      /* Update the RxISR function pointer */
      huart->RxISR = UART_RxISR_8BIT;
 8003504:	687b      	ldr	r3, [r7, #4]
 8003506:	4a16      	ldr	r2, [pc, #88]	@ (8003560 <UART_RxISR_8BIT_FIFOEN+0x360>)
 8003508:	675a      	str	r2, [r3, #116]	@ 0x74

      /* Enable the UART Data Register Not Empty interrupt */
      ATOMIC_SET_BIT(huart->Instance->CR1, USART_CR1_RXNEIE_RXFNEIE);
 800350a:	687b      	ldr	r3, [r7, #4]
 800350c:	681b      	ldr	r3, [r3, #0]
 800350e:	60fb      	str	r3, [r7, #12]
   __ASM volatile ("ldrex %0, %1" : "=r" (result) : "Q" (*addr) );
 8003510:	68fb      	ldr	r3, [r7, #12]
 8003512:	e853 3f00 	ldrex	r3, [r3]
 8003516:	60bb      	str	r3, [r7, #8]
   return(result);
 8003518:	68bb      	ldr	r3, [r7, #8]
 800351a:	f043 0320 	orr.w	r3, r3, #32
 800351e:	f8c7 3080 	str.w	r3, [r7, #128]	@ 0x80
 8003522:	687b      	ldr	r3, [r7, #4]
 8003524:	681b      	ldr	r3, [r3, #0]
 8003526:	461a      	mov	r2, r3
 8003528:	f8d7 3080 	ldr.w	r3, [r7, #128]	@ 0x80
 800352c:	61bb      	str	r3, [r7, #24]
 800352e:	617a      	str	r2, [r7, #20]
   __ASM volatile ("strex %0, %2, %1" : "=&r" (result), "=Q" (*addr) : "r" (value) );
 8003530:	6979      	ldr	r1, [r7, #20]
 8003532:	69ba      	ldr	r2, [r7, #24]
 8003534:	e841 2300 	strex	r3, r2, [r1]
 8003538:	613b      	str	r3, [r7, #16]
   return(result);
 800353a:	693b      	ldr	r3, [r7, #16]
 800353c:	2b00      	cmp	r3, #0
 800353e:	d1e4      	bne.n	800350a <UART_RxISR_8BIT_FIFOEN+0x30a>
  else
  {
    /* Clear RXNE interrupt flag */
    __HAL_UART_SEND_REQ(huart, UART_RXDATA_FLUSH_REQUEST);
  }
}
 8003540:	e007      	b.n	8003552 <UART_RxISR_8BIT_FIFOEN+0x352>
    __HAL_UART_SEND_REQ(huart, UART_RXDATA_FLUSH_REQUEST);
 8003542:	687b      	ldr	r3, [r7, #4]
 8003544:	681b      	ldr	r3, [r3, #0]
 8003546:	699a      	ldr	r2, [r3, #24]
 8003548:	687b      	ldr	r3, [r7, #4]
 800354a:	681b      	ldr	r3, [r3, #0]
 800354c:	f042 0208 	orr.w	r2, r2, #8
 8003550:	619a      	str	r2, [r3, #24]
}
 8003552:	bf00      	nop
 8003554:	37b0      	adds	r7, #176	@ 0xb0
 8003556:	46bd      	mov	sp, r7
 8003558:	bd80      	pop	{r7, pc}
 800355a:	bf00      	nop
 800355c:	40008000 	.word	0x40008000
 8003560:	08002e91 	.word	0x08002e91

08003564 <UART_RxISR_16BIT_FIFOEN>:
  *         interruptions have been enabled by HAL_UART_Receive_IT()
  * @param huart UART handle.
  * @retval None
  */
static void UART_RxISR_16BIT_FIFOEN(UART_HandleTypeDef *huart)
{
 8003564:	b580      	push	{r7, lr}
 8003566:	b0ae      	sub	sp, #184	@ 0xb8
 8003568:	af00      	add	r7, sp, #0
 800356a:	6078      	str	r0, [r7, #4]
  uint16_t *tmp;
  uint16_t  uhMask = huart->Mask;
 800356c:	687b      	ldr	r3, [r7, #4]
 800356e:	f8b3 3060 	ldrh.w	r3, [r3, #96]	@ 0x60
 8003572:	f8a7 30b2 	strh.w	r3, [r7, #178]	@ 0xb2
  uint16_t  uhdata;
  uint16_t  nb_rx_data;
  uint16_t  rxdatacount;
  uint32_t  isrflags = READ_REG(huart->Instance->ISR);
 8003576:	687b      	ldr	r3, [r7, #4]
 8003578:	681b      	ldr	r3, [r3, #0]
 800357a:	69db      	ldr	r3, [r3, #28]
 800357c:	f8c7 30b4 	str.w	r3, [r7, #180]	@ 0xb4
  uint32_t  cr1its   = READ_REG(huart->Instance->CR1);
 8003580:	687b      	ldr	r3, [r7, #4]
 8003582:	681b      	ldr	r3, [r3, #0]
 8003584:	681b      	ldr	r3, [r3, #0]
 8003586:	f8c7 30ac 	str.w	r3, [r7, #172]	@ 0xac
  uint32_t  cr3its   = READ_REG(huart->Instance->CR3);
 800358a:	687b      	ldr	r3, [r7, #4]
 800358c:	681b      	ldr	r3, [r3, #0]
 800358e:	689b      	ldr	r3, [r3, #8]
 8003590:	f8c7 30a8 	str.w	r3, [r7, #168]	@ 0xa8

  /* Check that a Rx process is ongoing */
  if (huart->RxState == HAL_UART_STATE_BUSY_RX)
 8003594:	687b      	ldr	r3, [r7, #4]
 8003596:	f8d3 308c 	ldr.w	r3, [r3, #140]	@ 0x8c
 800359a:	2b22      	cmp	r3, #34	@ 0x22
 800359c:	f040 8187 	bne.w	80038ae <UART_RxISR_16BIT_FIFOEN+0x34a>
  {
    nb_rx_data = huart->NbRxDataToProcess;
 80035a0:	687b      	ldr	r3, [r7, #4]
 80035a2:	f8b3 3068 	ldrh.w	r3, [r3, #104]	@ 0x68
 80035a6:	f8a7 30a6 	strh.w	r3, [r7, #166]	@ 0xa6
    while ((nb_rx_data > 0U) && ((isrflags & USART_ISR_RXNE_RXFNE) != 0U))
 80035aa:	e12a      	b.n	8003802 <UART_RxISR_16BIT_FIFOEN+0x29e>
    {
      uhdata = (uint16_t) READ_REG(huart->Instance->RDR);
 80035ac:	687b      	ldr	r3, [r7, #4]
 80035ae:	681b      	ldr	r3, [r3, #0]
 80035b0:	6a5b      	ldr	r3, [r3, #36]	@ 0x24
 80035b2:	f8a7 30a4 	strh.w	r3, [r7, #164]	@ 0xa4
      tmp = (uint16_t *) huart->pRxBuffPtr ;
 80035b6:	687b      	ldr	r3, [r7, #4]
 80035b8:	6d9b      	ldr	r3, [r3, #88]	@ 0x58
 80035ba:	f8c7 30a0 	str.w	r3, [r7, #160]	@ 0xa0
      *tmp = (uint16_t)(uhdata & uhMask);
 80035be:	f8b7 20a4 	ldrh.w	r2, [r7, #164]	@ 0xa4
 80035c2:	f8b7 30b2 	ldrh.w	r3, [r7, #178]	@ 0xb2
 80035c6:	4013      	ands	r3, r2
 80035c8:	b29a      	uxth	r2, r3
 80035ca:	f8d7 30a0 	ldr.w	r3, [r7, #160]	@ 0xa0
 80035ce:	801a      	strh	r2, [r3, #0]
      huart->pRxBuffPtr += 2U;
 80035d0:	687b      	ldr	r3, [r7, #4]
 80035d2:	6d9b      	ldr	r3, [r3, #88]	@ 0x58
 80035d4:	1c9a      	adds	r2, r3, #2
 80035d6:	687b      	ldr	r3, [r7, #4]
 80035d8:	659a      	str	r2, [r3, #88]	@ 0x58
      huart->RxXferCount--;
 80035da:	687b      	ldr	r3, [r7, #4]
 80035dc:	f8b3 305e 	ldrh.w	r3, [r3, #94]	@ 0x5e
 80035e0:	b29b      	uxth	r3, r3
 80035e2:	3b01      	subs	r3, #1
 80035e4:	b29a      	uxth	r2, r3
 80035e6:	687b      	ldr	r3, [r7, #4]
 80035e8:	f8a3 205e 	strh.w	r2, [r3, #94]	@ 0x5e
      isrflags = READ_REG(huart->Instance->ISR);
 80035ec:	687b      	ldr	r3, [r7, #4]
 80035ee:	681b      	ldr	r3, [r3, #0]
 80035f0:	69db      	ldr	r3, [r3, #28]
 80035f2:	f8c7 30b4 	str.w	r3, [r7, #180]	@ 0xb4

      /* If some non blocking errors occurred */
      if ((isrflags & (USART_ISR_PE | USART_ISR_FE | USART_ISR_NE)) != 0U)
 80035f6:	f8d7 30b4 	ldr.w	r3, [r7, #180]	@ 0xb4
 80035fa:	f003 0307 	and.w	r3, r3, #7
 80035fe:	2b00      	cmp	r3, #0
 8003600:	d053      	beq.n	80036aa <UART_RxISR_16BIT_FIFOEN+0x146>
      {
        /* UART parity error interrupt occurred -------------------------------------*/
        if (((isrflags & USART_ISR_PE) != 0U) && ((cr1its & USART_CR1_PEIE) != 0U))
 8003602:	f8d7 30b4 	ldr.w	r3, [r7, #180]	@ 0xb4
 8003606:	f003 0301 	and.w	r3, r3, #1
 800360a:	2b00      	cmp	r3, #0
 800360c:	d011      	beq.n	8003632 <UART_RxISR_16BIT_FIFOEN+0xce>
 800360e:	f8d7 30ac 	ldr.w	r3, [r7, #172]	@ 0xac
 8003612:	f403 7380 	and.w	r3, r3, #256	@ 0x100
 8003616:	2b00      	cmp	r3, #0
 8003618:	d00b      	beq.n	8003632 <UART_RxISR_16BIT_FIFOEN+0xce>
        {
          __HAL_UART_CLEAR_FLAG(huart, UART_CLEAR_PEF);
 800361a:	687b      	ldr	r3, [r7, #4]
 800361c:	681b      	ldr	r3, [r3, #0]
 800361e:	2201      	movs	r2, #1
 8003620:	621a      	str	r2, [r3, #32]

          huart->ErrorCode |= HAL_UART_ERROR_PE;
 8003622:	687b      	ldr	r3, [r7, #4]
 8003624:	f8d3 3090 	ldr.w	r3, [r3, #144]	@ 0x90
 8003628:	f043 0201 	orr.w	r2, r3, #1
 800362c:	687b      	ldr	r3, [r7, #4]
 800362e:	f8c3 2090 	str.w	r2, [r3, #144]	@ 0x90
        }

        /* UART frame error interrupt occurred --------------------------------------*/
        if (((isrflags & USART_ISR_FE) != 0U) && ((cr3its & USART_CR3_EIE) != 0U))
 8003632:	f8d7 30b4 	ldr.w	r3, [r7, #180]	@ 0xb4
 8003636:	f003 0302 	and.w	r3, r3, #2
 800363a:	2b00      	cmp	r3, #0
 800363c:	d011      	beq.n	8003662 <UART_RxISR_16BIT_FIFOEN+0xfe>
 800363e:	f8d7 30a8 	ldr.w	r3, [r7, #168]	@ 0xa8
 8003642:	f003 0301 	and.w	r3, r3, #1
 8003646:	2b00      	cmp	r3, #0
 8003648:	d00b      	beq.n	8003662 <UART_RxISR_16BIT_FIFOEN+0xfe>
        {
          __HAL_UART_CLEAR_FLAG(huart, UART_CLEAR_FEF);
 800364a:	687b      	ldr	r3, [r7, #4]
 800364c:	681b      	ldr	r3, [r3, #0]
 800364e:	2202      	movs	r2, #2
 8003650:	621a      	str	r2, [r3, #32]

          huart->ErrorCode |= HAL_UART_ERROR_FE;
 8003652:	687b      	ldr	r3, [r7, #4]
 8003654:	f8d3 3090 	ldr.w	r3, [r3, #144]	@ 0x90
 8003658:	f043 0204 	orr.w	r2, r3, #4
 800365c:	687b      	ldr	r3, [r7, #4]
 800365e:	f8c3 2090 	str.w	r2, [r3, #144]	@ 0x90
        }

        /* UART noise error interrupt occurred --------------------------------------*/
        if (((isrflags & USART_ISR_NE) != 0U) && ((cr3its & USART_CR3_EIE) != 0U))
 8003662:	f8d7 30b4 	ldr.w	r3, [r7, #180]	@ 0xb4
 8003666:	f003 0304 	and.w	r3, r3, #4
 800366a:	2b00      	cmp	r3, #0
 800366c:	d011      	beq.n	8003692 <UART_RxISR_16BIT_FIFOEN+0x12e>
 800366e:	f8d7 30a8 	ldr.w	r3, [r7, #168]	@ 0xa8
 8003672:	f003 0301 	and.w	r3, r3, #1
 8003676:	2b00      	cmp	r3, #0
 8003678:	d00b      	beq.n	8003692 <UART_RxISR_16BIT_FIFOEN+0x12e>
        {
          __HAL_UART_CLEAR_FLAG(huart, UART_CLEAR_NEF);
 800367a:	687b      	ldr	r3, [r7, #4]
 800367c:	681b      	ldr	r3, [r3, #0]
 800367e:	2204      	movs	r2, #4
 8003680:	621a      	str	r2, [r3, #32]

          huart->ErrorCode |= HAL_UART_ERROR_NE;
 8003682:	687b      	ldr	r3, [r7, #4]
 8003684:	f8d3 3090 	ldr.w	r3, [r3, #144]	@ 0x90
 8003688:	f043 0202 	orr.w	r2, r3, #2
 800368c:	687b      	ldr	r3, [r7, #4]
 800368e:	f8c3 2090 	str.w	r2, [r3, #144]	@ 0x90
        }

        /* Call UART Error Call back function if need be ----------------------------*/
        if (huart->ErrorCode != HAL_UART_ERROR_NONE)
 8003692:	687b      	ldr	r3, [r7, #4]
 8003694:	f8d3 3090 	ldr.w	r3, [r3, #144]	@ 0x90
 8003698:	2b00      	cmp	r3, #0
 800369a:	d006      	beq.n	80036aa <UART_RxISR_16BIT_FIFOEN+0x146>
#if (USE_HAL_UART_REGISTER_CALLBACKS == 1)
          /*Call registered error callback*/
          huart->ErrorCallback(huart);
#else
          /*Call legacy weak error callback*/
          HAL_UART_ErrorCallback(huart);
 800369c:	6878      	ldr	r0, [r7, #4]
 800369e:	f7ff fa1f 	bl	8002ae0 <HAL_UART_ErrorCallback>
#endif /* USE_HAL_UART_REGISTER_CALLBACKS */
          huart->ErrorCode = HAL_UART_ERROR_NONE;
 80036a2:	687b      	ldr	r3, [r7, #4]
 80036a4:	2200      	movs	r2, #0
 80036a6:	f8c3 2090 	str.w	r2, [r3, #144]	@ 0x90
        }
      }

      if (huart->RxXferCount == 0U)
 80036aa:	687b      	ldr	r3, [r7, #4]
 80036ac:	f8b3 305e 	ldrh.w	r3, [r3, #94]	@ 0x5e
 80036b0:	b29b      	uxth	r3, r3
 80036b2:	2b00      	cmp	r3, #0
 80036b4:	f040 80a5 	bne.w	8003802 <UART_RxISR_16BIT_FIFOEN+0x29e>
      {
        /* Disable the UART Parity Error Interrupt and RXFT interrupt*/
        ATOMIC_CLEAR_BIT(huart->Instance->CR1, USART_CR1_PEIE);
 80036b8:	687b      	ldr	r3, [r7, #4]
 80036ba:	681b      	ldr	r3, [r3, #0]
 80036bc:	677b      	str	r3, [r7, #116]	@ 0x74
   __ASM volatile ("ldrex %0, %1" : "=r" (result) : "Q" (*addr) );
 80036be:	6f7b      	ldr	r3, [r7, #116]	@ 0x74
 80036c0:	e853 3f00 	ldrex	r3, [r3]
 80036c4:	673b      	str	r3, [r7, #112]	@ 0x70
   return(result);
 80036c6:	6f3b      	ldr	r3, [r7, #112]	@ 0x70
 80036c8:	f423 7380 	bic.w	r3, r3, #256	@ 0x100
 80036cc:	f8c7 309c 	str.w	r3, [r7, #156]	@ 0x9c
 80036d0:	687b      	ldr	r3, [r7, #4]
 80036d2:	681b      	ldr	r3, [r3, #0]
 80036d4:	461a      	mov	r2, r3
 80036d6:	f8d7 309c 	ldr.w	r3, [r7, #156]	@ 0x9c
 80036da:	f8c7 3080 	str.w	r3, [r7, #128]	@ 0x80
 80036de:	67fa      	str	r2, [r7, #124]	@ 0x7c
   __ASM volatile ("strex %0, %2, %1" : "=&r" (result), "=Q" (*addr) : "r" (value) );
 80036e0:	6ff9      	ldr	r1, [r7, #124]	@ 0x7c
 80036e2:	f8d7 2080 	ldr.w	r2, [r7, #128]	@ 0x80
 80036e6:	e841 2300 	strex	r3, r2, [r1]
 80036ea:	67bb      	str	r3, [r7, #120]	@ 0x78
   return(result);
 80036ec:	6fbb      	ldr	r3, [r7, #120]	@ 0x78
 80036ee:	2b00      	cmp	r3, #0
 80036f0:	d1e2      	bne.n	80036b8 <UART_RxISR_16BIT_FIFOEN+0x154>

        /* Disable the UART Error Interrupt: (Frame error, noise error, overrun error)
           and RX FIFO Threshold interrupt */
        ATOMIC_CLEAR_BIT(huart->Instance->CR3, (USART_CR3_EIE | USART_CR3_RXFTIE));
 80036f2:	687b      	ldr	r3, [r7, #4]
 80036f4:	681b      	ldr	r3, [r3, #0]
 80036f6:	3308      	adds	r3, #8
 80036f8:	663b      	str	r3, [r7, #96]	@ 0x60
   __ASM volatile ("ldrex %0, %1" : "=r" (result) : "Q" (*addr) );
 80036fa:	6e3b      	ldr	r3, [r7, #96]	@ 0x60
 80036fc:	e853 3f00 	ldrex	r3, [r3]
 8003700:	65fb      	str	r3, [r7, #92]	@ 0x5c
   return(result);
 8003702:	6dfb      	ldr	r3, [r7, #92]	@ 0x5c
 8003704:	f023 5380 	bic.w	r3, r3, #268435456	@ 0x10000000
 8003708:	f023 0301 	bic.w	r3, r3, #1
 800370c:	f8c7 3098 	str.w	r3, [r7, #152]	@ 0x98
 8003710:	687b      	ldr	r3, [r7, #4]
 8003712:	681b      	ldr	r3, [r3, #0]
 8003714:	3308      	adds	r3, #8
 8003716:	f8d7 2098 	ldr.w	r2, [r7, #152]	@ 0x98
 800371a:	66fa      	str	r2, [r7, #108]	@ 0x6c
 800371c:	66bb      	str	r3, [r7, #104]	@ 0x68
   __ASM volatile ("strex %0, %2, %1" : "=&r" (result), "=Q" (*addr) : "r" (value) );
 800371e:	6eb9      	ldr	r1, [r7, #104]	@ 0x68
 8003720:	6efa      	ldr	r2, [r7, #108]	@ 0x6c
 8003722:	e841 2300 	strex	r3, r2, [r1]
 8003726:	667b      	str	r3, [r7, #100]	@ 0x64
   return(result);
 8003728:	6e7b      	ldr	r3, [r7, #100]	@ 0x64
 800372a:	2b00      	cmp	r3, #0
 800372c:	d1e1      	bne.n	80036f2 <UART_RxISR_16BIT_FIFOEN+0x18e>

        /* Rx process is completed, restore huart->RxState to Ready */
        huart->RxState = HAL_UART_STATE_READY;
 800372e:	687b      	ldr	r3, [r7, #4]
 8003730:	2220      	movs	r2, #32
 8003732:	f8c3 208c 	str.w	r2, [r3, #140]	@ 0x8c

        /* Clear RxISR function pointer */
        huart->RxISR = NULL;
 8003736:	687b      	ldr	r3, [r7, #4]
 8003738:	2200      	movs	r2, #0
 800373a:	675a      	str	r2, [r3, #116]	@ 0x74

        /* Initialize type of RxEvent to Transfer Complete */
        huart->RxEventType = HAL_UART_RXEVENT_TC;
 800373c:	687b      	ldr	r3, [r7, #4]
 800373e:	2200      	movs	r2, #0
 8003740:	671a      	str	r2, [r3, #112]	@ 0x70

        if (!(IS_LPUART_INSTANCE(huart->Instance)))
 8003742:	687b      	ldr	r3, [r7, #4]
 8003744:	681b      	ldr	r3, [r3, #0]
 8003746:	4a60      	ldr	r2, [pc, #384]	@ (80038c8 <UART_RxISR_16BIT_FIFOEN+0x364>)
 8003748:	4293      	cmp	r3, r2
 800374a:	d021      	beq.n	8003790 <UART_RxISR_16BIT_FIFOEN+0x22c>
        {
          /* Check that USART RTOEN bit is set */
          if (READ_BIT(huart->Instance->CR2, USART_CR2_RTOEN) != 0U)
 800374c:	687b      	ldr	r3, [r7, #4]
 800374e:	681b      	ldr	r3, [r3, #0]
 8003750:	685b      	ldr	r3, [r3, #4]
 8003752:	f403 0300 	and.w	r3, r3, #8388608	@ 0x800000
 8003756:	2b00      	cmp	r3, #0
 8003758:	d01a      	beq.n	8003790 <UART_RxISR_16BIT_FIFOEN+0x22c>
          {
            /* Enable the UART Receiver Timeout Interrupt */
            ATOMIC_CLEAR_BIT(huart->Instance->CR1, USART_CR1_RTOIE);
 800375a:	687b      	ldr	r3, [r7, #4]
 800375c:	681b      	ldr	r3, [r3, #0]
 800375e:	64fb      	str	r3, [r7, #76]	@ 0x4c
   __ASM volatile ("ldrex %0, %1" : "=r" (result) : "Q" (*addr) );
 8003760:	6cfb      	ldr	r3, [r7, #76]	@ 0x4c
 8003762:	e853 3f00 	ldrex	r3, [r3]
 8003766:	64bb      	str	r3, [r7, #72]	@ 0x48
   return(result);
 8003768:	6cbb      	ldr	r3, [r7, #72]	@ 0x48
 800376a:	f023 6380 	bic.w	r3, r3, #67108864	@ 0x4000000
 800376e:	f8c7 3094 	str.w	r3, [r7, #148]	@ 0x94
 8003772:	687b      	ldr	r3, [r7, #4]
 8003774:	681b      	ldr	r3, [r3, #0]
 8003776:	461a      	mov	r2, r3
 8003778:	f8d7 3094 	ldr.w	r3, [r7, #148]	@ 0x94
 800377c:	65bb      	str	r3, [r7, #88]	@ 0x58
 800377e:	657a      	str	r2, [r7, #84]	@ 0x54
   __ASM volatile ("strex %0, %2, %1" : "=&r" (result), "=Q" (*addr) : "r" (value) );
 8003780:	6d79      	ldr	r1, [r7, #84]	@ 0x54
 8003782:	6dba      	ldr	r2, [r7, #88]	@ 0x58
 8003784:	e841 2300 	strex	r3, r2, [r1]
 8003788:	653b      	str	r3, [r7, #80]	@ 0x50
   return(result);
 800378a:	6d3b      	ldr	r3, [r7, #80]	@ 0x50
 800378c:	2b00      	cmp	r3, #0
 800378e:	d1e4      	bne.n	800375a <UART_RxISR_16BIT_FIFOEN+0x1f6>
          }
        }

        /* Check current reception Mode :
           If Reception till IDLE event has been selected : */
        if (huart->ReceptionType == HAL_UART_RECEPTION_TOIDLE)
 8003790:	687b      	ldr	r3, [r7, #4]
 8003792:	6edb      	ldr	r3, [r3, #108]	@ 0x6c
 8003794:	2b01      	cmp	r3, #1
 8003796:	d130      	bne.n	80037fa <UART_RxISR_16BIT_FIFOEN+0x296>
        {
          /* Set reception type to Standard */
          huart->ReceptionType = HAL_UART_RECEPTION_STANDARD;
 8003798:	687b      	ldr	r3, [r7, #4]
 800379a:	2200      	movs	r2, #0
 800379c:	66da      	str	r2, [r3, #108]	@ 0x6c

          /* Disable IDLE interrupt */
          ATOMIC_CLEAR_BIT(huart->Instance->CR1, USART_CR1_IDLEIE);
 800379e:	687b      	ldr	r3, [r7, #4]
 80037a0:	681b      	ldr	r3, [r3, #0]
 80037a2:	63bb      	str	r3, [r7, #56]	@ 0x38
   __ASM volatile ("ldrex %0, %1" : "=r" (result) : "Q" (*addr) );
 80037a4:	6bbb      	ldr	r3, [r7, #56]	@ 0x38
 80037a6:	e853 3f00 	ldrex	r3, [r3]
 80037aa:	637b      	str	r3, [r7, #52]	@ 0x34
   return(result);
 80037ac:	6b7b      	ldr	r3, [r7, #52]	@ 0x34
 80037ae:	f023 0310 	bic.w	r3, r3, #16
 80037b2:	f8c7 3090 	str.w	r3, [r7, #144]	@ 0x90
 80037b6:	687b      	ldr	r3, [r7, #4]
 80037b8:	681b      	ldr	r3, [r3, #0]
 80037ba:	461a      	mov	r2, r3
 80037bc:	f8d7 3090 	ldr.w	r3, [r7, #144]	@ 0x90
 80037c0:	647b      	str	r3, [r7, #68]	@ 0x44
 80037c2:	643a      	str	r2, [r7, #64]	@ 0x40
   __ASM volatile ("strex %0, %2, %1" : "=&r" (result), "=Q" (*addr) : "r" (value) );
 80037c4:	6c39      	ldr	r1, [r7, #64]	@ 0x40
 80037c6:	6c7a      	ldr	r2, [r7, #68]	@ 0x44
 80037c8:	e841 2300 	strex	r3, r2, [r1]
 80037cc:	63fb      	str	r3, [r7, #60]	@ 0x3c
   return(result);
 80037ce:	6bfb      	ldr	r3, [r7, #60]	@ 0x3c
 80037d0:	2b00      	cmp	r3, #0
 80037d2:	d1e4      	bne.n	800379e <UART_RxISR_16BIT_FIFOEN+0x23a>

          if (__HAL_UART_GET_FLAG(huart, UART_FLAG_IDLE) == SET)
 80037d4:	687b      	ldr	r3, [r7, #4]
 80037d6:	681b      	ldr	r3, [r3, #0]
 80037d8:	69db      	ldr	r3, [r3, #28]
 80037da:	f003 0310 	and.w	r3, r3, #16
 80037de:	2b10      	cmp	r3, #16
 80037e0:	d103      	bne.n	80037ea <UART_RxISR_16BIT_FIFOEN+0x286>
          {
            /* Clear IDLE Flag */
            __HAL_UART_CLEAR_FLAG(huart, UART_CLEAR_IDLEF);
 80037e2:	687b      	ldr	r3, [r7, #4]
 80037e4:	681b      	ldr	r3, [r3, #0]
 80037e6:	2210      	movs	r2, #16
 80037e8:	621a      	str	r2, [r3, #32]
#if (USE_HAL_UART_REGISTER_CALLBACKS == 1)
          /*Call registered Rx Event callback*/
          huart->RxEventCallback(huart, huart->RxXferSize);
#else
          /*Call legacy weak Rx Event callback*/
          HAL_UARTEx_RxEventCallback(huart, huart->RxXferSize);
 80037ea:	687b      	ldr	r3, [r7, #4]
 80037ec:	f8b3 305c 	ldrh.w	r3, [r3, #92]	@ 0x5c
 80037f0:	4619      	mov	r1, r3
 80037f2:	6878      	ldr	r0, [r7, #4]
 80037f4:	f7ff f97e 	bl	8002af4 <HAL_UARTEx_RxEventCallback>
#else
          /*Call legacy weak Rx complete callback*/
          HAL_UART_RxCpltCallback(huart);
#endif /* USE_HAL_UART_REGISTER_CALLBACKS */
        }
        break;
 80037f8:	e00e      	b.n	8003818 <UART_RxISR_16BIT_FIFOEN+0x2b4>
          HAL_UART_RxCpltCallback(huart);
 80037fa:	6878      	ldr	r0, [r7, #4]
 80037fc:	f7ff f966 	bl	8002acc <HAL_UART_RxCpltCallback>
        break;
 8003800:	e00a      	b.n	8003818 <UART_RxISR_16BIT_FIFOEN+0x2b4>
    while ((nb_rx_data > 0U) && ((isrflags & USART_ISR_RXNE_RXFNE) != 0U))
 8003802:	f8b7 30a6 	ldrh.w	r3, [r7, #166]	@ 0xa6
 8003806:	2b00      	cmp	r3, #0
 8003808:	d006      	beq.n	8003818 <UART_RxISR_16BIT_FIFOEN+0x2b4>
 800380a:	f8d7 30b4 	ldr.w	r3, [r7, #180]	@ 0xb4
 800380e:	f003 0320 	and.w	r3, r3, #32
 8003812:	2b00      	cmp	r3, #0
 8003814:	f47f aeca 	bne.w	80035ac <UART_RxISR_16BIT_FIFOEN+0x48>

    /* When remaining number of bytes to receive is less than the RX FIFO
    threshold, next incoming frames are processed as if FIFO mode was
    disabled (i.e. one interrupt per received frame).
    */
    rxdatacount = huart->RxXferCount;
 8003818:	687b      	ldr	r3, [r7, #4]
 800381a:	f8b3 305e 	ldrh.w	r3, [r3, #94]	@ 0x5e
 800381e:	f8a7 308e 	strh.w	r3, [r7, #142]	@ 0x8e
    if ((rxdatacount != 0U) && (rxdatacount < huart->NbRxDataToProcess))
 8003822:	f8b7 308e 	ldrh.w	r3, [r7, #142]	@ 0x8e
 8003826:	2b00      	cmp	r3, #0
 8003828:	d049      	beq.n	80038be <UART_RxISR_16BIT_FIFOEN+0x35a>
 800382a:	687b      	ldr	r3, [r7, #4]
 800382c:	f8b3 3068 	ldrh.w	r3, [r3, #104]	@ 0x68
 8003830:	f8b7 208e 	ldrh.w	r2, [r7, #142]	@ 0x8e
 8003834:	429a      	cmp	r2, r3
 8003836:	d242      	bcs.n	80038be <UART_RxISR_16BIT_FIFOEN+0x35a>
    {
      /* Disable the UART RXFT interrupt*/
      ATOMIC_CLEAR_BIT(huart->Instance->CR3, USART_CR3_RXFTIE);
 8003838:	687b      	ldr	r3, [r7, #4]
 800383a:	681b      	ldr	r3, [r3, #0]
 800383c:	3308      	adds	r3, #8
 800383e:	627b      	str	r3, [r7, #36]	@ 0x24
   __ASM volatile ("ldrex %0, %1" : "=r" (result) : "Q" (*addr) );
 8003840:	6a7b      	ldr	r3, [r7, #36]	@ 0x24
 8003842:	e853 3f00 	ldrex	r3, [r3]
 8003846:	623b      	str	r3, [r7, #32]
   return(result);
 8003848:	6a3b      	ldr	r3, [r7, #32]
 800384a:	f023 5380 	bic.w	r3, r3, #268435456	@ 0x10000000
 800384e:	f8c7 3088 	str.w	r3, [r7, #136]	@ 0x88
 8003852:	687b      	ldr	r3, [r7, #4]
 8003854:	681b      	ldr	r3, [r3, #0]
 8003856:	3308      	adds	r3, #8
 8003858:	f8d7 2088 	ldr.w	r2, [r7, #136]	@ 0x88
 800385c:	633a      	str	r2, [r7, #48]	@ 0x30
 800385e:	62fb      	str	r3, [r7, #44]	@ 0x2c
   __ASM volatile ("strex %0, %2, %1" : "=&r" (result), "=Q" (*addr) : "r" (value) );
 8003860:	6af9      	ldr	r1, [r7, #44]	@ 0x2c
 8003862:	6b3a      	ldr	r2, [r7, #48]	@ 0x30
 8003864:	e841 2300 	strex	r3, r2, [r1]
 8003868:	62bb      	str	r3, [r7, #40]	@ 0x28
   return(result);
 800386a:	6abb      	ldr	r3, [r7, #40]	@ 0x28
 800386c:	2b00      	cmp	r3, #0
 800386e:	d1e3      	bne.n	8003838 <UART_RxISR_16BIT_FIFOEN+0x2d4>

      /* Update the RxISR function pointer */
      huart->RxISR = UART_RxISR_16BIT;
 8003870:	687b      	ldr	r3, [r7, #4]
 8003872:	4a16      	ldr	r2, [pc, #88]	@ (80038cc <UART_RxISR_16BIT_FIFOEN+0x368>)
 8003874:	675a      	str	r2, [r3, #116]	@ 0x74

      /* Enable the UART Data Register Not Empty interrupt */
      ATOMIC_SET_BIT(huart->Instance->CR1, USART_CR1_RXNEIE_RXFNEIE);
 8003876:	687b      	ldr	r3, [r7, #4]
 8003878:	681b      	ldr	r3, [r3, #0]
 800387a:	613b      	str	r3, [r7, #16]
   __ASM volatile ("ldrex %0, %1" : "=r" (result) : "Q" (*addr) );
 800387c:	693b      	ldr	r3, [r7, #16]
 800387e:	e853 3f00 	ldrex	r3, [r3]
 8003882:	60fb      	str	r3, [r7, #12]
   return(result);
 8003884:	68fb      	ldr	r3, [r7, #12]
 8003886:	f043 0320 	orr.w	r3, r3, #32
 800388a:	f8c7 3084 	str.w	r3, [r7, #132]	@ 0x84
 800388e:	687b      	ldr	r3, [r7, #4]
 8003890:	681b      	ldr	r3, [r3, #0]
 8003892:	461a      	mov	r2, r3
 8003894:	f8d7 3084 	ldr.w	r3, [r7, #132]	@ 0x84
 8003898:	61fb      	str	r3, [r7, #28]
 800389a:	61ba      	str	r2, [r7, #24]
   __ASM volatile ("strex %0, %2, %1" : "=&r" (result), "=Q" (*addr) : "r" (value) );
 800389c:	69b9      	ldr	r1, [r7, #24]
 800389e:	69fa      	ldr	r2, [r7, #28]
 80038a0:	e841 2300 	strex	r3, r2, [r1]
 80038a4:	617b      	str	r3, [r7, #20]
   return(result);
 80038a6:	697b      	ldr	r3, [r7, #20]
 80038a8:	2b00      	cmp	r3, #0
 80038aa:	d1e4      	bne.n	8003876 <UART_RxISR_16BIT_FIFOEN+0x312>
  else
  {
    /* Clear RXNE interrupt flag */
    __HAL_UART_SEND_REQ(huart, UART_RXDATA_FLUSH_REQUEST);
  }
}
 80038ac:	e007      	b.n	80038be <UART_RxISR_16BIT_FIFOEN+0x35a>
    __HAL_UART_SEND_REQ(huart, UART_RXDATA_FLUSH_REQUEST);
 80038ae:	687b      	ldr	r3, [r7, #4]
 80038b0:	681b      	ldr	r3, [r3, #0]
 80038b2:	699a      	ldr	r2, [r3, #24]
 80038b4:	687b      	ldr	r3, [r7, #4]
 80038b6:	681b      	ldr	r3, [r3, #0]
 80038b8:	f042 0208 	orr.w	r2, r2, #8
 80038bc:	619a      	str	r2, [r3, #24]
}
 80038be:	bf00      	nop
 80038c0:	37b8      	adds	r7, #184	@ 0xb8
 80038c2:	46bd      	mov	sp, r7
 80038c4:	bd80      	pop	{r7, pc}
 80038c6:	bf00      	nop
 80038c8:	40008000 	.word	0x40008000
 80038cc:	08003049 	.word	0x08003049

080038d0 <HAL_UARTEx_WakeupCallback>:
  * @brief UART wakeup from Stop mode callback.
  * @param huart UART handle.
  * @retval None
  */
__weak void HAL_UARTEx_WakeupCallback(UART_HandleTypeDef *huart)
{
 80038d0:	b480      	push	{r7}
 80038d2:	b083      	sub	sp, #12
 80038d4:	af00      	add	r7, sp, #0
 80038d6:	6078      	str	r0, [r7, #4]
  UNUSED(huart);

  /* NOTE : This function should not be modified, when the callback is needed,
            the HAL_UARTEx_WakeupCallback can be implemented in the user file.
   */
}
 80038d8:	bf00      	nop
 80038da:	370c      	adds	r7, #12
 80038dc:	46bd      	mov	sp, r7
 80038de:	f85d 7b04 	ldr.w	r7, [sp], #4
 80038e2:	4770      	bx	lr

080038e4 <HAL_UARTEx_RxFifoFullCallback>:
  * @brief  UART RX Fifo full callback.
  * @param  huart UART handle.
  * @retval None
  */
__weak void HAL_UARTEx_RxFifoFullCallback(UART_HandleTypeDef *huart)
{
 80038e4:	b480      	push	{r7}
 80038e6:	b083      	sub	sp, #12
 80038e8:	af00      	add	r7, sp, #0
 80038ea:	6078      	str	r0, [r7, #4]
  UNUSED(huart);

  /* NOTE : This function should not be modified, when the callback is needed,
            the HAL_UARTEx_RxFifoFullCallback can be implemented in the user file.
   */
}
 80038ec:	bf00      	nop
 80038ee:	370c      	adds	r7, #12
 80038f0:	46bd      	mov	sp, r7
 80038f2:	f85d 7b04 	ldr.w	r7, [sp], #4
 80038f6:	4770      	bx	lr

080038f8 <HAL_UARTEx_TxFifoEmptyCallback>:
  * @brief  UART TX Fifo empty callback.
  * @param  huart UART handle.
  * @retval None
  */
__weak void HAL_UARTEx_TxFifoEmptyCallback(UART_HandleTypeDef *huart)
{
 80038f8:	b480      	push	{r7}
 80038fa:	b083      	sub	sp, #12
 80038fc:	af00      	add	r7, sp, #0
 80038fe:	6078      	str	r0, [r7, #4]
  UNUSED(huart);

  /* NOTE : This function should not be modified, when the callback is needed,
            the HAL_UARTEx_TxFifoEmptyCallback can be implemented in the user file.
   */
}
 8003900:	bf00      	nop
 8003902:	370c      	adds	r7, #12
 8003904:	46bd      	mov	sp, r7
 8003906:	f85d 7b04 	ldr.w	r7, [sp], #4
 800390a:	4770      	bx	lr

0800390c <memset>:
 800390c:	4402      	add	r2, r0
 800390e:	4603      	mov	r3, r0
 8003910:	4293      	cmp	r3, r2
 8003912:	d100      	bne.n	8003916 <memset+0xa>
 8003914:	4770      	bx	lr
 8003916:	f803 1b01 	strb.w	r1, [r3], #1
 800391a:	e7f9      	b.n	8003910 <memset+0x4>

0800391c <__libc_init_array>:
 800391c:	b570      	push	{r4, r5, r6, lr}
 800391e:	4b0d      	ldr	r3, [pc, #52]	@ (8003954 <__libc_init_array+0x38>)
 8003920:	4d0d      	ldr	r5, [pc, #52]	@ (8003958 <__libc_init_array+0x3c>)
 8003922:	1b5b      	subs	r3, r3, r5
 8003924:	109c      	asrs	r4, r3, #2
 8003926:	2600      	movs	r6, #0
 8003928:	42a6      	cmp	r6, r4
 800392a:	d109      	bne.n	8003940 <__libc_init_array+0x24>
 800392c:	f000 f81a 	bl	8003964 <_init>
 8003930:	4d0a      	ldr	r5, [pc, #40]	@ (800395c <__libc_init_array+0x40>)
 8003932:	4b0b      	ldr	r3, [pc, #44]	@ (8003960 <__libc_init_array+0x44>)
 8003934:	1b5b      	subs	r3, r3, r5
 8003936:	109c      	asrs	r4, r3, #2
 8003938:	2600      	movs	r6, #0
 800393a:	42a6      	cmp	r6, r4
 800393c:	d105      	bne.n	800394a <__libc_init_array+0x2e>
 800393e:	bd70      	pop	{r4, r5, r6, pc}
 8003940:	f855 3b04 	ldr.w	r3, [r5], #4
 8003944:	4798      	blx	r3
 8003946:	3601      	adds	r6, #1
 8003948:	e7ee      	b.n	8003928 <__libc_init_array+0xc>
 800394a:	f855 3b04 	ldr.w	r3, [r5], #4
 800394e:	4798      	blx	r3
 8003950:	3601      	adds	r6, #1
 8003952:	e7f2      	b.n	800393a <__libc_init_array+0x1e>
 8003954:	0800398c 	.word	0x0800398c
 8003958:	0800398c 	.word	0x0800398c
 800395c:	0800398c 	.word	0x0800398c
 8003960:	08003990 	.word	0x08003990

08003964 <_init>:
 8003964:	b5f8      	push	{r3, r4, r5, r6, r7, lr}
 8003966:	bf00      	nop
 8003968:	bcf8      	pop	{r3, r4, r5, r6, r7}
 800396a:	bc08      	pop	{r3}
 800396c:	469e      	mov	lr, r3
 800396e:	4770      	bx	lr

08003970 <_fini>:
 8003970:	b5f8      	push	{r3, r4, r5, r6, r7, lr}
 8003972:	bf00      	nop
 8003974:	bcf8      	pop	{r3, r4, r5, r6, r7}
 8003976:	bc08      	pop	{r3}
 8003978:	469e      	mov	lr, r3
 800397a:	4770      	bx	lr
